///////////////////////////////////////////////////////////////////////////////
//                                                                            /
// IAR C/C++ Compiler V8.10.3.10338/W32 for 8051        07/Aug/2016  18:37:53 /
// Copyright 2004-2011 IAR Systems AB.                                        /
//                                                                            /
//    Core               =  plain                                             /
//    Code model         =  banked                                            /
//    Data model         =  large                                             /
//    Calling convention =  xdata reentrant                                   /
//    Constant location  =  data_rom                                          /
//    Dptr setup         =  1,16                                              /
//    Source file        =  C:\Users\Administrator\Desktop\Location\ROUTER\Pr /
//                          ojects\zstack\Samples\SampleApp\Source\SampleApp. /
//                          c                                                 /
//    Command line       =  -f C:\Users\Administrator\Desktop\Location\ROUTER /
//                          \Projects\zstack\Samples\SampleApp\CC2530DB\..\.. /
//                          \..\Tools\CC2530DB\f8wRouter.cfg (-DCPU32MHZ      /
//                          -DROOT=__near_func -DMAC_CFG_APP_PENDING_QUEUE=TR /
//                          UE -DRTR_NWK -DBLINK_LEDS) -f                     /
//                          C:\Users\Administrator\Desktop\Location\ROUTER\Pr /
//                          ojects\zstack\Samples\SampleApp\CC2530DB\..\..\.. /
//                          \Tools\CC2530DB\f8wConfig.cfg (-DSECURE=0         /
//                          -DZG_SECURE_DYNAMIC=0 -DREFLECTOR                 /
//                          -DDEFAULT_CHANLIST=0x00000800                     /
//                          -DZDAPP_CONFIG_PAN_ID=0xFFFF                      /
//                          -DNWK_START_DELAY=100 -DEXTENDED_JOINING_RANDOM_M /
//                          ASK=0x007F -DBEACON_REQUEST_DELAY=100             /
//                          -DBEACON_REQ_DELAY_MASK=0x00FF                    /
//                          -DROUTE_EXPIRY_TIME=30 -DAPSC_ACK_WAIT_DURATION_P /
//                          OLLED=3000 -DNWK_INDIRECT_MSG_TIMEOUT=7           /
//                          -DMAX_RREQ_ENTRIES=8 -DAPSC_MAX_FRAME_RETRIES=3   /
//                          -DNWK_MAX_DATA_RETRIES=2                          /
//                          -DMAX_POLL_FAILURE_RETRIES=2 -DMAX_BCAST=9        /
//                          -DAPS_MAX_GROUPS=16 -DMAX_RTG_ENTRIES=40          /
//                          -DNWK_MAX_BINDING_ENTRIES=4                       /
//                          -DMAX_BINDING_CLUSTER_IDS=4                       /
//                          "-DDEFAULT_KEY={0x01, 0x03, 0x05, 0x07, 0x09,     /
//                          0x0B, 0x0D, 0x0F, 0x00, 0x02, 0x04, 0x06, 0x08,   /
//                          0x0A, 0x0C, 0x0D}" -DMAC_MAX_FRAME_SIZE=116       /
//                          "-DCONST=const __code" -DGENERIC=__generic        /
//                          -DRFD_RCVC_ALWAYS_ON=FALSE -DPOLL_RATE=1000       /
//                          -DQUEUED_POLL_RATE=100 -DRESPONSE_POLL_RATE=100)  /
//                          -DREJOIN_POLL_RATE=440 C:\Users\Administrator\Des /
//                          ktop\Location\ROUTER\Projects\zstack\Samples\Samp /
//                          leApp\Source\SampleApp.c -D ZTOOL_P1 -D MT_TASK   /
//                          -D MT_SYS_FUNC -D MT_ZDO_FUNC -D                  /
//                          LCD_SUPPORTED=DEBUG -lC                           /
//                          C:\Users\Administrator\Desktop\Location\ROUTER\Pr /
//                          ojects\zstack\Samples\SampleApp\CC2530DB\RouterEB /
//                          \List\ -lA C:\Users\Administrator\Desktop\Locatio /
//                          n\ROUTER\Projects\zstack\Samples\SampleApp\CC2530 /
//                          DB\RouterEB\List\ --diag_suppress Pe001,Pa010 -o  /
//                          C:\Users\Administrator\Desktop\Location\ROUTER\Pr /
//                          ojects\zstack\Samples\SampleApp\CC2530DB\RouterEB /
//                          \Obj\ -e --debug --core=plain --dptr=16,1         /
//                          --data_model=large --code_model=banked            /
//                          --calling_convention=xdata_reentrant              /
//                          --place_constants=data_rom --nr_virtual_regs 16   /
//                          -I C:\Users\Administrator\Desktop\Location\ROUTER /
//                          \Projects\zstack\Samples\SampleApp\CC2530DB\ -I   /
//                          C:\Users\Administrator\Desktop\Location\ROUTER\Pr /
//                          ojects\zstack\Samples\SampleApp\CC2530DB\..\SOURC /
//                          E\ -I C:\Users\Administrator\Desktop\Location\ROU /
//                          TER\Projects\zstack\Samples\SampleApp\CC2530DB\.. /
//                          \..\..\ZMAIN\TI2530DB\ -I                         /
//                          C:\Users\Administrator\Desktop\Location\ROUTER\Pr /
//                          ojects\zstack\Samples\SampleApp\CC2530DB\..\..\.. /
//                          \..\..\COMPONENTS\MT\ -I                          /
//                          C:\Users\Administrator\Desktop\Location\ROUTER\Pr /
//                          ojects\zstack\Samples\SampleApp\CC2530DB\..\..\.. /
//                          \..\..\COMPONENTS\HAL\INCLUDE\ -I                 /
//                          C:\Users\Administrator\Desktop\Location\ROUTER\Pr /
//                          ojects\zstack\Samples\SampleApp\CC2530DB\..\..\.. /
//                          \..\..\COMPONENTS\HAL\TARGET\CC2530EB\ -I         /
//                          C:\Users\Administrator\Desktop\Location\ROUTER\Pr /
//                          ojects\zstack\Samples\SampleApp\CC2530DB\..\..\.. /
//                          \..\..\COMPONENTS\OSAL\MCU\CCSOC\ -I              /
//                          C:\Users\Administrator\Desktop\Location\ROUTER\Pr /
//                          ojects\zstack\Samples\SampleApp\CC2530DB\..\..\.. /
//                          \..\..\COMPONENTS\OSAL\INCLUDE\ -I                /
//                          C:\Users\Administrator\Desktop\Location\ROUTER\Pr /
//                          ojects\zstack\Samples\SampleApp\CC2530DB\..\..\.. /
//                          \..\..\COMPONENTS\STACK\AF\ -I                    /
//                          C:\Users\Administrator\Desktop\Location\ROUTER\Pr /
//                          ojects\zstack\Samples\SampleApp\CC2530DB\..\..\.. /
//                          \..\..\COMPONENTS\STACK\NWK\ -I                   /
//                          C:\Users\Administrator\Desktop\Location\ROUTER\Pr /
//                          ojects\zstack\Samples\SampleApp\CC2530DB\..\..\.. /
//                          \..\..\COMPONENTS\STACK\SEC\ -I                   /
//                          C:\Users\Administrator\Desktop\Location\ROUTER\Pr /
//                          ojects\zstack\Samples\SampleApp\CC2530DB\..\..\.. /
//                          \..\..\COMPONENTS\STACK\SAPI\ -I                  /
//                          C:\Users\Administrator\Desktop\Location\ROUTER\Pr /
//                          ojects\zstack\Samples\SampleApp\CC2530DB\..\..\.. /
//                          \..\..\COMPONENTS\STACK\SYS\ -I                   /
//                          C:\Users\Administrator\Desktop\Location\ROUTER\Pr /
//                          ojects\zstack\Samples\SampleApp\CC2530DB\..\..\.. /
//                          \..\..\COMPONENTS\STACK\ZDO\ -I                   /
//                          C:\Users\Administrator\Desktop\Location\ROUTER\Pr /
//                          ojects\zstack\Samples\SampleApp\CC2530DB\..\..\.. /
//                          \..\..\COMPONENTS\ZMAC\F8W\ -I                    /
//                          C:\Users\Administrator\Desktop\Location\ROUTER\Pr /
//                          ojects\zstack\Samples\SampleApp\CC2530DB\..\..\.. /
//                          \..\..\COMPONENTS\ZMAC\ -I                        /
//                          C:\Users\Administrator\Desktop\Location\ROUTER\Pr /
//                          ojects\zstack\Samples\SampleApp\CC2530DB\..\..\.. /
//                          \..\..\COMPONENTS\SERVICES\SADDR\ -I              /
//                          C:\Users\Administrator\Desktop\Location\ROUTER\Pr /
//                          ojects\zstack\Samples\SampleApp\CC2530DB\..\..\.. /
//                          \..\..\COMPONENTS\SERVICES\SDATA\ -I              /
//                          C:\Users\Administrator\Desktop\Location\ROUTER\Pr /
//                          ojects\zstack\Samples\SampleApp\CC2530DB\..\..\.. /
//                          \..\..\COMPONENTS\MAC\INCLUDE\ -I                 /
//                          C:\Users\Administrator\Desktop\Location\ROUTER\Pr /
//                          ojects\zstack\Samples\SampleApp\CC2530DB\..\..\.. /
//                          \..\..\COMPONENTS\MAC\HIGH_LEVEL\ -I              /
//                          C:\Users\Administrator\Desktop\Location\ROUTER\Pr /
//                          ojects\zstack\Samples\SampleApp\CC2530DB\..\..\.. /
//                          \..\..\COMPONENTS\MAC\LOW_LEVEL\srf04\ -I         /
//                          C:\Users\Administrator\Desktop\Location\ROUTER\Pr /
//                          ojects\zstack\Samples\SampleApp\CC2530DB\..\..\.. /
//                          \..\..\COMPONENTS\MAC\LOW_LEVEL\srf04\SINGLE_CHIP /
//                          \ -Ohz --require_prototypes                       /
//    List file          =  C:\Users\Administrator\Desktop\Location\ROUTER\Pr /
//                          ojects\zstack\Samples\SampleApp\CC2530DB\RouterEB /
//                          \List\SampleApp.s51                               /
//                                                                            /
//                                                                            /
///////////////////////////////////////////////////////////////////////////////

        NAME SampleApp

        RTMODEL "__SystemLibrary", "CLib"
        RTMODEL "__calling_convention", "xdata_reentrant"
        RTMODEL "__code_model", "banked"
        RTMODEL "__core", "plain"
        RTMODEL "__data_model", "large"
        RTMODEL "__dptr_size", "16"
        RTMODEL "__extended_stack", "disabled"
        RTMODEL "__location_for_constants", "data"
        RTMODEL "__number_of_dptrs", "1"
        RTMODEL "__rt_version", "1"

        RSEG DOVERLAY:DATA:NOROOT(0)
        RSEG IOVERLAY:IDATA:NOROOT(0)
        RSEG ISTACK:IDATA:NOROOT(0)
        RSEG PSTACK:XDATA:NOROOT(0)
        RSEG XSTACK:XDATA:NOROOT(0)

        EXTERN ?ALLOC_XSTACK8
        EXTERN ?BANKED_ENTER_XDATA
        EXTERN ?BANKED_LEAVE_XDATA
        EXTERN ?BDISPATCH
        EXTERN ?BRET
        EXTERN ?DEALLOC_XSTACK8
        EXTERN ?PUSH_XSTACK_I_ONE
        EXTERN ?PUSH_XSTACK_I_THREE
        EXTERN ?PUSH_XSTACK_I_TWO
        EXTERN ?US_DIV_MOD
        EXTERN ?US_SHR
        EXTERN ?V0
        EXTERN ?XSP
        EXTERN ?XSTACK_DISP0_8
        EXTERN __INIT_XDATA_Z

        PUBLIC ??SampleApp_HandleKeys?relay
        FUNCTION ??SampleApp_HandleKeys?relay,0203H
        PUBLIC ??SampleApp_Init?relay
        FUNCTION ??SampleApp_Init?relay,0203H
        PUBLIC ??SampleApp_MessageMSGCB?relay
        FUNCTION ??SampleApp_MessageMSGCB?relay,0203H
        PUBLIC ??SampleApp_P2P_SendMessage?relay
        FUNCTION ??SampleApp_P2P_SendMessage?relay,0203H
        PUBLIC ??SampleApp_ProcessEvent?relay
        FUNCTION ??SampleApp_ProcessEvent?relay,0203H
        FUNCTION ??UART_CallBackFunction?relay,0203H
        PUBLIC RX_BUFFER
        PUBLIC RX_Length
        PUBLIC SampleAppFlashCounter
        PUBLIC SampleAppPeriodicCounter
        PUBLIC SampleApp_ClusterList
        PUBLIC SampleApp_Flash_DstAddr
        PUBLIC SampleApp_Group
        PUBLIC SampleApp_HandleKeys
        FUNCTION SampleApp_HandleKeys,021203H
        ARGFRAME XSTACK, 12, STACK
        ARGFRAME IOVERLAY, 0, STATIC
        ARGFRAME DOVERLAY, 0, STATIC
        LOCFRAME XSTACK, 10, STACK
        PUBLIC SampleApp_Init
        FUNCTION SampleApp_Init,021203H
        ARGFRAME XSTACK, 0, STACK
        LOCFRAME XSTACK, 43, STACK
        PUBLIC SampleApp_MessageMSGCB
        FUNCTION SampleApp_MessageMSGCB,021203H
        ARGFRAME XSTACK, 12, STACK
        ARGFRAME IOVERLAY, 0, STATIC
        ARGFRAME DOVERLAY, 0, STATIC
        LOCFRAME ISTACK, 1, STACK
        LOCFRAME XSTACK, 10, STACK
        PUBLIC SampleApp_NwkState
        PUBLIC SampleApp_P2P_SendMessage
        FUNCTION SampleApp_P2P_SendMessage,021203H
        ARGFRAME XSTACK, 10, STACK
        ARGFRAME IOVERLAY, 0, STATIC
        ARGFRAME DOVERLAY, 0, STATIC
        LOCFRAME XSTACK, 19, STACK
        PUBLIC SampleApp_Periodic_DstAddr
        PUBLIC SampleApp_ProcessEvent
        FUNCTION SampleApp_ProcessEvent,021203H
        ARGFRAME XSTACK, 0, STACK
        LOCFRAME XSTACK, 12, STACK
        PUBLIC SampleApp_SimpleDesc
        PUBLIC SampleApp_TaskID
        PUBLIC SampleApp_TransID
        PUBLIC SampleApp_epDesc
        PUBLIC SampleApp_p2p_DstAddr
        FUNCTION UART_CallBackFunction,021603H
        ARGFRAME XSTACK, 0, STACK
        LOCFRAME ISTACK, 2, STACK
        PUBLIC rssi_index
        PUBLIC rssi_s
        PUBLIC rssi_val
        
        CFI Names cfiNames0
        CFI StackFrame CFA_SP SP IDATA
        CFI StackFrame CFA_PSP16 PSP16 XDATA
        CFI StackFrame CFA_XSP16 XSP16 XDATA
        CFI StaticOverlayFrame CFA_IOVERLAY IOVERLAY
        CFI StaticOverlayFrame CFA_DOVERLAY DOVERLAY
        CFI Resource `PSW.CY`:1, `B.BR0`:1, `B.BR1`:1, `B.BR2`:1, `B.BR3`:1
        CFI Resource `B.BR4`:1, `B.BR5`:1, `B.BR6`:1, `B.BR7`:1, `VB.BR8`:1
        CFI Resource `VB.BR9`:1, `VB.BR10`:1, `VB.BR11`:1, `VB.BR12`:1
        CFI Resource `VB.BR13`:1, `VB.BR14`:1, `VB.BR15`:1, VB:8, B:8, A:8
        CFI Resource PSW:8, DPL0:8, DPH0:8, R0:8, R1:8, R2:8, R3:8, R4:8, R5:8
        CFI Resource R6:8, R7:8, V0:8, V1:8, V2:8, V3:8, V4:8, V5:8, V6:8, V7:8
        CFI Resource V8:8, V9:8, V10:8, V11:8, V12:8, V13:8, V14:8, V15:8, SP:8
        CFI Resource PSPH:8, PSPL:8, PSP16:16, XSPH:8, XSPL:8, XSP16:16
        CFI VirtualResource ?RET:24
        CFI Resource ?BRET_EXT:8
        CFI VirtualResource ?RET_HIGH:8, ?RET_LOW:8
        CFI ResourceParts PSP16 PSPH, PSPL
        CFI ResourceParts XSP16 XSPH, XSPL
        CFI ResourceParts ?RET ?BRET_EXT, ?RET_HIGH, ?RET_LOW
        CFI EndNames cfiNames0
        
        CFI Common cfiCommon0 Using cfiNames0
        CFI CodeAlign 1
        CFI DataAlign -1
        CFI ReturnAddress ?RET CODE
        CFI CFA_DOVERLAY Used
        CFI CFA_IOVERLAY Used
        CFI CFA_SP SP+-3
        CFI CFA_PSP16 PSP16+0
        CFI CFA_XSP16 XSP16+0
        CFI `PSW.CY` SameValue
        CFI `B.BR0` SameValue
        CFI `B.BR1` SameValue
        CFI `B.BR2` SameValue
        CFI `B.BR3` SameValue
        CFI `B.BR4` SameValue
        CFI `B.BR5` SameValue
        CFI `B.BR6` SameValue
        CFI `B.BR7` SameValue
        CFI `VB.BR8` SameValue
        CFI `VB.BR9` SameValue
        CFI `VB.BR10` SameValue
        CFI `VB.BR11` SameValue
        CFI `VB.BR12` SameValue
        CFI `VB.BR13` SameValue
        CFI `VB.BR14` SameValue
        CFI `VB.BR15` SameValue
        CFI VB SameValue
        CFI B Undefined
        CFI A Undefined
        CFI PSW SameValue
        CFI DPL0 SameValue
        CFI DPH0 SameValue
        CFI R0 Undefined
        CFI R1 Undefined
        CFI R2 Undefined
        CFI R3 Undefined
        CFI R4 Undefined
        CFI R5 Undefined
        CFI R6 SameValue
        CFI R7 SameValue
        CFI V0 SameValue
        CFI V1 SameValue
        CFI V2 SameValue
        CFI V3 SameValue
        CFI V4 SameValue
        CFI V5 SameValue
        CFI V6 SameValue
        CFI V7 SameValue
        CFI V8 SameValue
        CFI V9 SameValue
        CFI V10 SameValue
        CFI V11 SameValue
        CFI V12 SameValue
        CFI V13 SameValue
        CFI V14 SameValue
        CFI V15 SameValue
        CFI PSPH Undefined
        CFI PSPL Undefined
        CFI XSPH Undefined
        CFI XSPL Undefined
        CFI ?RET Concat
        CFI ?BRET_EXT Frame(CFA_SP, 3)
        CFI ?RET_HIGH Frame(CFA_SP, 2)
        CFI ?RET_LOW Frame(CFA_SP, 1)
        CFI EndCommon cfiCommon0
        
        
        CFI Common cfiCommon1 Using cfiNames0
        CFI CodeAlign 1
        CFI DataAlign -1
        CFI ReturnAddress ?RET CODE
        CFI CFA_DOVERLAY Used
        CFI CFA_IOVERLAY Used
        CFI CFA_SP SP+-2
        CFI CFA_PSP16 PSP16+0
        CFI CFA_XSP16 XSP16+0
        CFI `PSW.CY` SameValue
        CFI `B.BR0` SameValue
        CFI `B.BR1` SameValue
        CFI `B.BR2` SameValue
        CFI `B.BR3` SameValue
        CFI `B.BR4` SameValue
        CFI `B.BR5` SameValue
        CFI `B.BR6` SameValue
        CFI `B.BR7` SameValue
        CFI `VB.BR8` SameValue
        CFI `VB.BR9` SameValue
        CFI `VB.BR10` SameValue
        CFI `VB.BR11` SameValue
        CFI `VB.BR12` SameValue
        CFI `VB.BR13` SameValue
        CFI `VB.BR14` SameValue
        CFI `VB.BR15` SameValue
        CFI VB SameValue
        CFI B SameValue
        CFI A SameValue
        CFI PSW SameValue
        CFI DPL0 SameValue
        CFI DPH0 SameValue
        CFI R0 SameValue
        CFI R1 SameValue
        CFI R2 SameValue
        CFI R3 SameValue
        CFI R4 SameValue
        CFI R5 SameValue
        CFI R6 SameValue
        CFI R7 SameValue
        CFI V0 SameValue
        CFI V1 SameValue
        CFI V2 SameValue
        CFI V3 SameValue
        CFI V4 SameValue
        CFI V5 SameValue
        CFI V6 SameValue
        CFI V7 SameValue
        CFI V8 SameValue
        CFI V9 SameValue
        CFI V10 SameValue
        CFI V11 SameValue
        CFI V12 SameValue
        CFI V13 SameValue
        CFI V14 SameValue
        CFI V15 SameValue
        CFI PSPH Undefined
        CFI PSPL Undefined
        CFI XSPH Undefined
        CFI XSPL Undefined
        CFI ?RET Concat
        CFI ?BRET_EXT SameValue
        CFI ?RET_HIGH Frame(CFA_SP, 2)
        CFI ?RET_LOW Frame(CFA_SP, 1)
        CFI EndCommon cfiCommon1
        
afRegister          SYMBOL "afRegister"
RegisterForKeys     SYMBOL "RegisterForKeys"
osal_memcpy         SYMBOL "osal_memcpy"
aps_AddGroup        SYMBOL "aps_AddGroup"
HalUARTOpen         SYMBOL "HalUARTOpen"
HalLcdWriteString   SYMBOL "HalLcdWriteString"
osal_msg_receive    SYMBOL "osal_msg_receive"
osal_start_timerEx  SYMBOL "osal_start_timerEx"
osal_msg_deallocate SYMBOL "osal_msg_deallocate"
aps_FindGroup       SYMBOL "aps_FindGroup"
aps_RemoveGroup     SYMBOL "aps_RemoveGroup"
Hal_UART_RxBufLen   SYMBOL "Hal_UART_RxBufLen"
HalUARTRead         SYMBOL "HalUARTRead"
HalUARTWrite        SYMBOL "HalUARTWrite"
AF_DataRequest      SYMBOL "AF_DataRequest"
??AF_DataRequest?relay SYMBOL "?relay", AF_DataRequest
??HalLcdWriteString?relay SYMBOL "?relay", HalLcdWriteString
??HalUARTOpen?relay SYMBOL "?relay", HalUARTOpen
??HalUARTRead?relay SYMBOL "?relay", HalUARTRead
??HalUARTWrite?relay SYMBOL "?relay", HalUARTWrite
??Hal_UART_RxBufLen?relay SYMBOL "?relay", Hal_UART_RxBufLen
??RegisterForKeys?relay SYMBOL "?relay", RegisterForKeys
??afRegister?relay  SYMBOL "?relay", afRegister
??aps_AddGroup?relay SYMBOL "?relay", aps_AddGroup
??aps_FindGroup?relay SYMBOL "?relay", aps_FindGroup
??aps_RemoveGroup?relay SYMBOL "?relay", aps_RemoveGroup
??osal_memcpy?relay SYMBOL "?relay", osal_memcpy
??osal_msg_deallocate?relay SYMBOL "?relay", osal_msg_deallocate
??osal_msg_receive?relay SYMBOL "?relay", osal_msg_receive
??osal_start_timerEx?relay SYMBOL "?relay", osal_start_timerEx
SampleApp_HandleKeys SYMBOL "SampleApp_HandleKeys"
??SampleApp_HandleKeys?relay SYMBOL "?relay", SampleApp_HandleKeys
SampleApp_Init      SYMBOL "SampleApp_Init"
??SampleApp_Init?relay SYMBOL "?relay", SampleApp_Init
SampleApp_MessageMSGCB SYMBOL "SampleApp_MessageMSGCB"
??SampleApp_MessageMSGCB?relay SYMBOL "?relay", SampleApp_MessageMSGCB
SampleApp_P2P_SendMessage SYMBOL "SampleApp_P2P_SendMessage"
??SampleApp_P2P_SendMessage?relay SYMBOL "?relay", SampleApp_P2P_SendMessage
SampleApp_ProcessEvent SYMBOL "SampleApp_ProcessEvent"
??SampleApp_ProcessEvent?relay SYMBOL "?relay", SampleApp_ProcessEvent

        EXTERN afRegister
        FUNCTION afRegister,0202H
        ARGFRAME ISTACK, 0, STACK
        ARGFRAME PSTACK, 0, STACK
        ARGFRAME XSTACK, 40, STACK
        ARGFRAME IOVERLAY, 0, STATIC
        ARGFRAME DOVERLAY, 0, STATIC
        EXTERN RegisterForKeys
        FUNCTION RegisterForKeys,0202H
        ARGFRAME ISTACK, 0, STACK
        ARGFRAME PSTACK, 0, STACK
        ARGFRAME XSTACK, 40, STACK
        ARGFRAME IOVERLAY, 0, STATIC
        ARGFRAME DOVERLAY, 0, STATIC
        EXTERN osal_memcpy
        FUNCTION osal_memcpy,0202H
        ARGFRAME ISTACK, 0, STACK
        ARGFRAME PSTACK, 0, STACK
        ARGFRAME XSTACK, 43, STACK
        ARGFRAME IOVERLAY, 0, STATIC
        ARGFRAME DOVERLAY, 0, STATIC
        EXTERN aps_AddGroup
        FUNCTION aps_AddGroup,0202H
        ARGFRAME ISTACK, 0, STACK
        ARGFRAME PSTACK, 0, STACK
        ARGFRAME XSTACK, 40, STACK
        ARGFRAME IOVERLAY, 0, STATIC
        ARGFRAME DOVERLAY, 0, STATIC
        EXTERN HalUARTOpen
        FUNCTION HalUARTOpen,0202H
        ARGFRAME ISTACK, 0, STACK
        ARGFRAME PSTACK, 0, STACK
        ARGFRAME XSTACK, 40, STACK
        ARGFRAME IOVERLAY, 0, STATIC
        ARGFRAME DOVERLAY, 0, STATIC
        EXTERN HalLcdWriteString
        FUNCTION HalLcdWriteString,0202H
        ARGFRAME ISTACK, 0, STACK
        ARGFRAME PSTACK, 0, STACK
        ARGFRAME XSTACK, 40, STACK
        ARGFRAME IOVERLAY, 0, STATIC
        ARGFRAME DOVERLAY, 0, STATIC
        EXTERN osal_msg_receive
        FUNCTION osal_msg_receive,0202H
        ARGFRAME ISTACK, 0, STACK
        ARGFRAME PSTACK, 0, STACK
        ARGFRAME XSTACK, 12, STACK
        ARGFRAME IOVERLAY, 0, STATIC
        ARGFRAME DOVERLAY, 0, STATIC
        EXTERN osal_start_timerEx
        FUNCTION osal_start_timerEx,0202H
        ARGFRAME ISTACK, 0, STACK
        ARGFRAME PSTACK, 0, STACK
        ARGFRAME XSTACK, 12, STACK
        ARGFRAME IOVERLAY, 0, STATIC
        ARGFRAME DOVERLAY, 0, STATIC
        EXTERN osal_msg_deallocate
        FUNCTION osal_msg_deallocate,0202H
        ARGFRAME ISTACK, 0, STACK
        ARGFRAME PSTACK, 0, STACK
        ARGFRAME XSTACK, 12, STACK
        ARGFRAME IOVERLAY, 0, STATIC
        ARGFRAME DOVERLAY, 0, STATIC
        EXTERN aps_FindGroup
        FUNCTION aps_FindGroup,0202H
        ARGFRAME ISTACK, 0, STACK
        ARGFRAME PSTACK, 0, STACK
        ARGFRAME XSTACK, 10, STACK
        ARGFRAME IOVERLAY, 0, STATIC
        ARGFRAME DOVERLAY, 0, STATIC
        EXTERN aps_RemoveGroup
        FUNCTION aps_RemoveGroup,0202H
        ARGFRAME ISTACK, 0, STACK
        ARGFRAME PSTACK, 0, STACK
        ARGFRAME XSTACK, 10, STACK
        ARGFRAME IOVERLAY, 0, STATIC
        ARGFRAME DOVERLAY, 0, STATIC
        EXTERN Hal_UART_RxBufLen
        FUNCTION Hal_UART_RxBufLen,0202H
        ARGFRAME ISTACK, 2, STACK
        ARGFRAME PSTACK, 0, STACK
        ARGFRAME XSTACK, 0, STACK
        ARGFRAME IOVERLAY, 0, STATIC
        ARGFRAME DOVERLAY, 0, STATIC
        EXTERN HalUARTRead
        FUNCTION HalUARTRead,0202H
        ARGFRAME ISTACK, 2, STACK
        ARGFRAME PSTACK, 0, STACK
        ARGFRAME XSTACK, 0, STACK
        ARGFRAME IOVERLAY, 0, STATIC
        ARGFRAME DOVERLAY, 0, STATIC
        EXTERN HalUARTWrite
        FUNCTION HalUARTWrite,0202H
        ARGFRAME ISTACK, 2, STACK
        ARGFRAME PSTACK, 0, STACK
        ARGFRAME XSTACK, 0, STACK
        ARGFRAME IOVERLAY, 0, STATIC
        ARGFRAME DOVERLAY, 0, STATIC
        EXTERN AF_DataRequest
        FUNCTION AF_DataRequest,0202H
        ARGFRAME ISTACK, 0, STACK
        ARGFRAME PSTACK, 0, STACK
        ARGFRAME XSTACK, 19, STACK
        ARGFRAME IOVERLAY, 0, STATIC
        ARGFRAME DOVERLAY, 0, STATIC
        EXTERN ??AF_DataRequest?relay
        FUNCTION ??AF_DataRequest?relay,00H
        EXTERN ??HalLcdWriteString?relay
        FUNCTION ??HalLcdWriteString?relay,00H
        EXTERN ??HalUARTOpen?relay
        FUNCTION ??HalUARTOpen?relay,00H
        EXTERN ??HalUARTRead?relay
        FUNCTION ??HalUARTRead?relay,00H
        EXTERN ??HalUARTWrite?relay
        FUNCTION ??HalUARTWrite?relay,00H
        EXTERN ??Hal_UART_RxBufLen?relay
        FUNCTION ??Hal_UART_RxBufLen?relay,00H
        EXTERN ??RegisterForKeys?relay
        FUNCTION ??RegisterForKeys?relay,00H
        EXTERN ??afRegister?relay
        FUNCTION ??afRegister?relay,00H
        EXTERN ??aps_AddGroup?relay
        FUNCTION ??aps_AddGroup?relay,00H
        EXTERN ??aps_FindGroup?relay
        FUNCTION ??aps_FindGroup?relay,00H
        EXTERN ??aps_RemoveGroup?relay
        FUNCTION ??aps_RemoveGroup?relay,00H
        EXTERN ??osal_memcpy?relay
        FUNCTION ??osal_memcpy?relay,00H
        EXTERN ??osal_msg_deallocate?relay
        FUNCTION ??osal_msg_deallocate?relay,00H
        EXTERN ??osal_msg_receive?relay
        FUNCTION ??osal_msg_receive?relay,00H
        EXTERN ??osal_start_timerEx?relay
        FUNCTION ??osal_start_timerEx?relay,00H

// C:\Users\Administrator\Desktop\Location\ROUTER\Projects\zstack\Samples\SampleApp\Source\SampleApp.c
//    1 /**************************************************************************************************
//    2 Filename:       SampleApp.c
//    3 Revised:        $Date: 2009-03-18 15:56:27 -0700 (Wed, 18 Mar 2009) $
//    4 Revision:       $Revision: 19453 $
//    5 
//    6 Description:    Sample Application (no Profile).
//    7 
//    8 
//    9 Copyright 2007 Texas Instruments Incorporated. All rights reserved.
//   10 
//   11 IMPORTANT: Your use of this Software is limited to those specific rights
//   12 granted under the terms of a software license agreement between the user
//   13 who downloaded the software, his/her employer (which must be your employer)
//   14 and Texas Instruments Incorporated (the "License").  You may not use this
//   15 Software unless you agree to abide by the terms of the License. The License
//   16 limits your use, and you acknowledge, that the Software may not be modified,
//   17 copied or distributed unless embedded on a Texas Instruments microcontroller
//   18 or used solely and exclusively in conjunction with a Texas Instruments radio
//   19 frequency transceiver, which is integrated into your product.  Other than for
//   20 the foregoing purpose, you may not use, reproduce, copy, prepare derivative
//   21 works of, modify, distribute, perform, display or sell this Software and/or
//   22 its documentation for any purpose.
//   23 
//   24 YOU FURTHER ACKNOWLEDGE AND AGREE THAT THE SOFTWARE AND DOCUMENTATION ARE
//   25 PROVIDED AS IS?WITHOUT WARRANTY OF ANY KIND, EITHER EXPRESS OR IMPLIED,
//   26 INCLUDING WITHOUT LIMITATION, ANY WARRANTY OF MERCHANTABILITY, TITLE,
//   27 NON-INFRINGEMENT AND FITNESS FOR A PARTICULAR PURPOSE. IN NO EVENT SHALL
//   28 TEXAS INSTRUMENTS OR ITS LICENSORS BE LIABLE OR OBLIGATED UNDER CONTRACT,
//   29 NEGLIGENCE, STRICT LIABILITY, CONTRIBUTION, BREACH OF WARRANTY, OR OTHER
//   30 LEGAL EQUITABLE THEORY ANY DIRECT OR INDIRECT DAMAGES OR EXPENSES
//   31 INCLUDING BUT NOT LIMITED TO ANY INCIDENTAL, SPECIAL, INDIRECT, PUNITIVE
//   32 OR CONSEQUENTIAL DAMAGES, LOST PROFITS OR LOST DATA, COST OF PROCUREMENT
//   33 OF SUBSTITUTE GOODS, TECHNOLOGY, SERVICES, OR ANY CLAIMS BY THIRD PARTIES
//   34 (INCLUDING BUT NOT LIMITED TO ANY DEFENSE THEREOF), OR OTHER SIMILAR COSTS.
//   35 
//   36 Should you have any questions regarding your right to use this Software,
//   37 contact Texas Instruments Incorporated at www.TI.com.
//   38 **************************************************************************************************/
//   39 
//   40 /*********************************************************************
//   41 This application isn't intended to do anything useful, it is
//   42 intended to be a simple example of an application's structure.
//   43 
//   44 This application sends it's messages either as broadcast or
//   45 broadcast filtered group messages.  The other (more normal)
//   46 message addressing is unicast.  Most of the other sample
//   47 applications are written to support the unicast message model.
//   48 
//   49 Key control:
//   50 SW1:  Sends a flash command to all devices in Group 1.
//   51 SW2:  Adds/Removes (toggles) this device in and out
//   52 of Group 1.  This will enable and disable the
//   53 reception of the flash command.
//   54 *********************************************************************/
//   55 
//   56 /*********************************************************************
//   57 * INCLUDES
//   58 */
//   59 #include "OSAL.h"
//   60 #include "ZGlobals.h"
//   61 #include "AF.h"
//   62 #include "aps_groups.h"
//   63 #include "ZDApp.h"
//   64 
//   65 #include "SampleApp.h"
//   66 #include "SampleAppHw.h"
//   67 
//   68 #include "OnBoard.h"
//   69 
//   70 /* HAL */
//   71 #include "hal_lcd.h"
//   72 #include "hal_led.h"
//   73 #include "hal_key.h"
//   74 #include "MT_UART.h"
//   75 #include "MT_APP.h"
//   76 #include "MT.h"
//   77 #include "ds18b20.h"
//   78 
//   79 
//   80 /* user define*/
//   81 #include "string.h"
//   82 #include "stdlib.h"
//   83 
//   84 /*********************************************************************
//   85 * MACROS
//   86 */
//   87 
//   88 /*********************************************************************
//   89 * CONSTANTS
//   90 */
//   91 
//   92 /*********************************************************************
//   93 * TYPEDEFS
//   94 */
//   95 
//   96 /*********************************************************************
//   97 * GLOBAL VARIABLES全局变量定义
//   98 */
//   99 //串口
//  100 #define MY_DEFINI_UART_PORT 0 
//  101 #ifndef RX_MAX_LENGTH
//  102 #define RX_MAX_LENGTH 20
//  103 #endif

        RSEG XDATA_Z:XDATA:NOROOT(0)
        DATA8
//  104 uint8 RX_BUFFER[RX_MAX_LENGTH];
RX_BUFFER:
        DS 20
        REQUIRE __INIT_XDATA_Z

        RSEG XDATA_Z:XDATA:NOROOT(0)
        DATA8
//  105 uint8 RX_Length;
RX_Length:
        DS 1
        REQUIRE __INIT_XDATA_Z
//  106 void UART_CallBackFunction(uint8 port, uint8 event);//当串口有数据到来时，调用此函数
//  107 
//  108 
//  109 
//  110 
//  111 // This list should be filled with Application specific Cluster IDs.

        RSEG XDATA_ROM_C:CONST:REORDER:NOROOT(0)
        DATA32
//  112 const cId_t SampleApp_ClusterList[SAMPLEAPP_MAX_CLUSTERS] =
SampleApp_ClusterList:
        DATA16
        DW 1
        DW 2
//  113 {
//  114   SAMPLEAPP_PERIODIC_CLUSTERID,
//  115   SAMPLEAPP_FLASH_CLUSTERID
//  116 };
//  117 

        RSEG XDATA_ROM_C:CONST:REORDER:NOROOT(0)
        DATA8
//  118 const SimpleDescriptionFormat_t SampleApp_SimpleDesc =
SampleApp_SimpleDesc:
        DB 20
        DATA16
        DW 3848
        DW 1
        DATA8
        DB 0
        DB 2
        DATA16
        DW SampleApp_ClusterList
        DATA8
        DB 2
        DATA16
        DW SampleApp_ClusterList
//  119 {
//  120   SAMPLEAPP_ENDPOINT,              //  int Endpoint;
//  121   SAMPLEAPP_PROFID,                //  uint16 AppProfId[2];
//  122   SAMPLEAPP_DEVICEID,              //  uint16 AppDeviceId[2];
//  123   SAMPLEAPP_DEVICE_VERSION,        //  int   AppDevVer:4;
//  124   SAMPLEAPP_FLAGS,                 //  int   AppFlags:4;
//  125   SAMPLEAPP_MAX_CLUSTERS,          //  uint8  AppNumInClusters;
//  126   (cId_t *)SampleApp_ClusterList,  //  uint8 *pAppInClusterList;
//  127   SAMPLEAPP_MAX_CLUSTERS,          //  uint8  AppNumInClusters;
//  128   (cId_t *)SampleApp_ClusterList   //  uint8 *pAppInClusterList;
//  129 };
//  130 
//  131 // This is the Endpoint/Interface description.  It is defined here, but
//  132 // filled-in in SampleApp_Init().  Another way to go would be to fill
//  133 // in the structure here and make it a "const" (in code space).  The
//  134 // way it's defined in this sample app it is define in RAM.

        RSEG XDATA_Z:XDATA:NOROOT(0)
        DATA8
//  135 endPointDesc_t SampleApp_epDesc;
SampleApp_epDesc:
        DS 6
        REQUIRE __INIT_XDATA_Z
//  136 
//  137 /*********************************************************************
//  138 * EXTERNAL VARIABLES
//  139 */
//  140 
//  141 /*********************************************************************
//  142 * EXTERNAL FUNCTIONS
//  143 */
//  144 
//  145 /*********************************************************************
//  146 * LOCAL VARIABLES
//  147 */

        RSEG XDATA_Z:XDATA:NOROOT(0)
        DATA8
//  148 uint8 SampleApp_TaskID;   // Task ID for internal task/event processing
SampleApp_TaskID:
        DS 1
        REQUIRE __INIT_XDATA_Z
//  149 // This variable will be received when
//  150 // SampleApp_Init() is called.

        RSEG XDATA_Z:XDATA:NOROOT(0)
        DATA8
//  151 devStates_t SampleApp_NwkState;
SampleApp_NwkState:
        DS 1
        REQUIRE __INIT_XDATA_Z
//  152 

        RSEG XDATA_Z:XDATA:NOROOT(0)
        DATA8
//  153 uint8 SampleApp_TransID;  // This is the unique message ID (counter)
SampleApp_TransID:
        DS 1
        REQUIRE __INIT_XDATA_Z
//  154 

        RSEG XDATA_Z:XDATA:NOROOT(0)
        DATA8
//  155 afAddrType_t SampleApp_Periodic_DstAddr;
SampleApp_Periodic_DstAddr:
        DS 12
        REQUIRE __INIT_XDATA_Z

        RSEG XDATA_Z:XDATA:NOROOT(0)
        DATA8
//  156 afAddrType_t SampleApp_Flash_DstAddr;
SampleApp_Flash_DstAddr:
        DS 12
        REQUIRE __INIT_XDATA_Z

        RSEG XDATA_Z:XDATA:NOROOT(0)
        DATA8
//  157 afAddrType_t SampleApp_p2p_DstAddr;//点播地址
SampleApp_p2p_DstAddr:
        DS 12
        REQUIRE __INIT_XDATA_Z
//  158 

        RSEG XDATA_Z:XDATA:NOROOT(0)
        DATA8
//  159 aps_Group_t SampleApp_Group;
SampleApp_Group:
        DS 18
        REQUIRE __INIT_XDATA_Z
//  160 

        RSEG XDATA_Z:XDATA:NOROOT(0)
        DATA8
//  161 uint8 SampleAppPeriodicCounter = 0;
SampleAppPeriodicCounter:
        DS 1
        REQUIRE __INIT_XDATA_Z

        RSEG XDATA_Z:XDATA:NOROOT(0)
        DATA8
//  162 uint8 SampleAppFlashCounter = 0;
SampleAppFlashCounter:
        DS 1
        REQUIRE __INIT_XDATA_Z
//  163 //锚节点与协调器之间的数据传输使用

        RSEG XDATA_Z:XDATA:NOROOT(0)
        DATA8
//  164 uint8 rssi_val[10];
rssi_val:
        DS 10
        REQUIRE __INIT_XDATA_Z

        RSEG XDATA_Z:XDATA:NOROOT(0)
        DATA8
//  165 uint8 rssi_index = 0; 
rssi_index:
        DS 1
        REQUIRE __INIT_XDATA_Z

        RSEG XDATA_Z:XDATA:NOROOT(0)
        DATA8
//  166 uint8 rssi_s[3] = {'\0'};
rssi_s:
        DS 3
        REQUIRE __INIT_XDATA_Z
//  167 //发送给协调器的数据
//  168 
//  169 /*********************************************************************
//  170 * LOCAL FUNCTIONS
//  171 */
//  172 void SampleApp_HandleKeys( uint8 shift, uint8 keys );
//  173 void SampleApp_MessageMSGCB( afIncomingMSGPacket_t *pckt );
//  174 
//  175 
//  176 void SampleApp_P2P_SendMessage(void);
//  177 void SamplaAPP_ProcessBlindData( afIncomingMSGPacket_t *pkt);//参考节点处理接收到的锚节点的数据
//  178 
//  179 /*********************************************************************
//  180 * NETWORK LAYER CALLBACKS
//  181 */
//  182 
//  183 /*********************************************************************
//  184 * PUBLIC FUNCTIONS
//  185 */
//  186 
//  187 /*********************************************************************
//  188 * @fn      SampleApp_Init
//  189 *
//  190 * @brief   Initialization function for the Generic App Task.
//  191 *          This is called during initialization and should contain
//  192 *          any application specific initialization (ie. hardware
//  193 *          initialization/setup, table initialization, power up
//  194 *          notificaiton ... ).
//  195 *
//  196 * @param   task_id - the ID assigned by OSAL.  This ID should be
//  197 *                    used to send messages and set timers.
//  198 *
//  199 * @return  none
//  200 */

        RSEG BANKED_CODE:CODE:NOROOT(0)
//  201 void SampleApp_Init( uint8 task_id )
SampleApp_Init:
        CFI Block cfiBlock0 Using cfiCommon0
        CFI Function SampleApp_Init
        CODE
//  202 {
        FUNCALL SampleApp_Init, afRegister
        LOCFRAME ISTACK, 0, STACK
        LOCFRAME PSTACK, 0, STACK
        LOCFRAME XSTACK, 40, STACK
        LOCFRAME IOVERLAY, 0, STATIC
        LOCFRAME DOVERLAY, 0, STATIC
        ARGFRAME ISTACK, 0, STACK
        ARGFRAME PSTACK, 0, STACK
        ARGFRAME XSTACK, 40, STACK
        ARGFRAME IOVERLAY, 0, STATIC
        ARGFRAME DOVERLAY, 0, STATIC
        FUNCALL SampleApp_Init, RegisterForKeys
        LOCFRAME ISTACK, 0, STACK
        LOCFRAME PSTACK, 0, STACK
        LOCFRAME XSTACK, 40, STACK
        LOCFRAME IOVERLAY, 0, STATIC
        LOCFRAME DOVERLAY, 0, STATIC
        ARGFRAME ISTACK, 0, STACK
        ARGFRAME PSTACK, 0, STACK
        ARGFRAME XSTACK, 40, STACK
        ARGFRAME IOVERLAY, 0, STATIC
        ARGFRAME DOVERLAY, 0, STATIC
        FUNCALL SampleApp_Init, osal_memcpy
        LOCFRAME ISTACK, 0, STACK
        LOCFRAME PSTACK, 0, STACK
        LOCFRAME XSTACK, 43, STACK
        LOCFRAME IOVERLAY, 0, STATIC
        LOCFRAME DOVERLAY, 0, STATIC
        ARGFRAME ISTACK, 0, STACK
        ARGFRAME PSTACK, 0, STACK
        ARGFRAME XSTACK, 43, STACK
        ARGFRAME IOVERLAY, 0, STATIC
        ARGFRAME DOVERLAY, 0, STATIC
        FUNCALL SampleApp_Init, aps_AddGroup
        LOCFRAME ISTACK, 0, STACK
        LOCFRAME PSTACK, 0, STACK
        LOCFRAME XSTACK, 40, STACK
        LOCFRAME IOVERLAY, 0, STATIC
        LOCFRAME DOVERLAY, 0, STATIC
        ARGFRAME ISTACK, 0, STACK
        ARGFRAME PSTACK, 0, STACK
        ARGFRAME XSTACK, 40, STACK
        ARGFRAME IOVERLAY, 0, STATIC
        ARGFRAME DOVERLAY, 0, STATIC
        FUNCALL SampleApp_Init, HalUARTOpen
        LOCFRAME ISTACK, 0, STACK
        LOCFRAME PSTACK, 0, STACK
        LOCFRAME XSTACK, 40, STACK
        LOCFRAME IOVERLAY, 0, STATIC
        LOCFRAME DOVERLAY, 0, STATIC
        ARGFRAME ISTACK, 0, STACK
        ARGFRAME PSTACK, 0, STACK
        ARGFRAME XSTACK, 40, STACK
        ARGFRAME IOVERLAY, 0, STATIC
        ARGFRAME DOVERLAY, 0, STATIC
        FUNCALL SampleApp_Init, HalLcdWriteString
        LOCFRAME ISTACK, 0, STACK
        LOCFRAME PSTACK, 0, STACK
        LOCFRAME XSTACK, 40, STACK
        LOCFRAME IOVERLAY, 0, STATIC
        LOCFRAME DOVERLAY, 0, STATIC
        ARGFRAME ISTACK, 0, STACK
        ARGFRAME PSTACK, 0, STACK
        ARGFRAME XSTACK, 40, STACK
        ARGFRAME IOVERLAY, 0, STATIC
        ARGFRAME DOVERLAY, 0, STATIC
        MOV     A,#-0xb
        LCALL   ?BANKED_ENTER_XDATA
        CFI DPH0 load(1, XDATA, add(CFA_XSP16, literal(-1)))
        CFI DPL0 load(1, XDATA, add(CFA_XSP16, literal(-2)))
        CFI ?BRET_EXT load(1, XDATA, add(CFA_XSP16, literal(-3)))
        CFI ?RET_HIGH load(1, XDATA, add(CFA_XSP16, literal(-4)))
        CFI ?RET_LOW load(1, XDATA, add(CFA_XSP16, literal(-5)))
        CFI R7 load(1, XDATA, add(CFA_XSP16, literal(-6)))
        CFI V2 load(1, XDATA, add(CFA_XSP16, literal(-7)))
        CFI V1 load(1, XDATA, add(CFA_XSP16, literal(-8)))
        CFI V0 load(1, XDATA, add(CFA_XSP16, literal(-9)))
        CFI VB load(1, XDATA, add(CFA_XSP16, literal(-10)))
        CFI R6 load(1, XDATA, add(CFA_XSP16, literal(-11)))
        CFI CFA_SP SP+0
        CFI CFA_XSP16 add(XSP16, 11)
        ; Saved register size: 11
        ; Auto size: 29
        MOV     A,#-0x1d
        LCALL   ?ALLOC_XSTACK8
        CFI CFA_XSP16 add(XSP16, 40)
        MOV     A,R1
//  203   SampleApp_TaskID = task_id;
        MOV     DPTR,#SampleApp_TaskID
        MOVX    @DPTR,A
//  204   SampleApp_NwkState = DEV_INIT;
        MOV     DPTR,#SampleApp_NwkState
        MOV     A,#0x1
        MOVX    @DPTR,A
//  205   SampleApp_TransID = 0;
        MOV     DPTR,#SampleApp_TransID
        CLR     A
        MOVX    @DPTR,A
//  206   halUARTCfg_t uartConfig;//初始化串口使用
//  207   
//  208   // Device hardware initialization can be added here or in main() (Zmain.c).
//  209   // If the hardware is application specific - add it here.
//  210   // If the hardware is other parts of the device add it in main().
//  211   
//  212 #if defined ( BUILD_ALL_DEVICES )
//  213   // The "Demo" target is setup to have BUILD_ALL_DEVICES and HOLD_AUTO_START
//  214   // We are looking at a jumper (defined in SampleAppHw.c) to be jumpered
//  215   // together - if they are - we will start up a coordinator. Otherwise,
//  216   // the device will start as a router.
//  217   if ( readCoordinatorJumper() )
//  218     zgDeviceLogicalType = ZG_DEVICETYPE_COORDINATOR;
//  219   else
//  220     zgDeviceLogicalType = ZG_DEVICETYPE_ROUTER;
//  221 #endif // BUILD_ALL_DEVICES
//  222   
//  223 #if defined ( HOLD_AUTO_START )
//  224   // HOLD_AUTO_START is a compile option that will surpress ZDApp
//  225   //  from starting the device and wait for the application to
//  226   //  start the device.
//  227   ZDOInitDevice(0);
//  228 #endif
//  229   
//  230   // Setup for the periodic message's destination address
//  231   // Broadcast to everyone，
//  232   //在定位实验中，盲节点应该使用广播形式，让参考节点能够均能接收到数据
//  233   /*
//  234   SampleApp_Periodic_DstAddr.addrMode = (afAddrMode_t)AddrBroadcast;
//  235   SampleApp_Periodic_DstAddr.endPoint = SAMPLEAPP_ENDPOINT;
//  236   SampleApp_Periodic_DstAddr.addr.shortAddr = 0xFFFF;
//  237   
//  238   */ 
//  239   //组播形式的初期设想应该是每层作为一个组使用。本次测试实验，忽略
//  240   // Setup for the flash command's destination address - Group 1
//  241   /*
//  242   SampleApp_Flash_DstAddr.addrMode = (afAddrMode_t)afAddrGroup;
//  243   SampleApp_Flash_DstAddr.endPoint = SAMPLEAPP_ENDPOINT;
//  244   SampleApp_Flash_DstAddr.addr.shortAddr = SAMPLEAPP_FLASH_GROUP;
//  245   */
//  246   
//  247   // 点播设置。定位时，参考节点与协调器之间的通讯是应该是点播，从而让协调器能够分类
//  248   
//  249   SampleApp_p2p_DstAddr.addrMode = (afAddrMode_t)Addr16Bit;
        MOV     DPTR,#SampleApp_p2p_DstAddr + 8
        MOV     A,#0x2
        MOVX    @DPTR,A
//  250   SampleApp_p2p_DstAddr.endPoint = SAMPLEAPP_ENDPOINT;
        INC     DPTR
        MOV     A,#0x14
        MOVX    @DPTR,A
//  251   SampleApp_p2p_DstAddr.addr.shortAddr = 0x0000;//发送信息给协调器
        MOV     DPTR,#SampleApp_p2p_DstAddr
        CLR     A
        MOVX    @DPTR,A
        INC     DPTR
        MOVX    @DPTR,A
//  252   
//  253   
//  254   // Fill out the endpoint description.
//  255   SampleApp_epDesc.endPoint = SAMPLEAPP_ENDPOINT;
        MOV     DPTR,#SampleApp_epDesc
        MOV     A,#0x14
        MOVX    @DPTR,A
//  256   SampleApp_epDesc.task_id = &SampleApp_TaskID;
        INC     DPTR
        MOV     A,#SampleApp_TaskID & 0xff
        MOVX    @DPTR,A
        INC     DPTR
        MOV     A,#(SampleApp_TaskID >> 8) & 0xff
        MOVX    @DPTR,A
//  257   SampleApp_epDesc.simpleDesc
//  258     = (SimpleDescriptionFormat_t *)&SampleApp_SimpleDesc;
        INC     DPTR
        MOV     A,#SampleApp_SimpleDesc & 0xff
        MOVX    @DPTR,A
        INC     DPTR
        MOV     A,#(SampleApp_SimpleDesc >> 8) & 0xff
        MOVX    @DPTR,A
//  259   SampleApp_epDesc.latencyReq = noLatencyReqs;
        INC     DPTR
        CLR     A
        MOVX    @DPTR,A
//  260   
//  261   // Register the endpoint description with the AF
//  262   afRegister( &SampleApp_epDesc );
        ; Setup parameters for call to function afRegister
        MOV     R2,#SampleApp_epDesc & 0xff
        MOV     R3,#(SampleApp_epDesc >> 8) & 0xff
        LCALL   ??afRegister?relay
//  263   
//  264   // Register for all key events - This app will handle all key events
//  265   RegisterForKeys( SampleApp_TaskID );
        ; Setup parameters for call to function RegisterForKeys
        MOV     DPTR,#SampleApp_TaskID
        MOVX    A,@DPTR
        MOV     R1,A
        LCALL   ??RegisterForKeys?relay
//  266   
//  267   // By default, all devices start out in Group 1
//  268   //默认情况下，所有设备都是组1，可以对此进行设置，从而时不同的设备进入不同的组
//  269   SampleApp_Group.ID = 0x0001;
        MOV     DPTR,#SampleApp_Group
        MOV     A,#0x1
        MOVX    @DPTR,A
        INC     DPTR
        CLR     A
        MOVX    @DPTR,A
//  270   osal_memcpy( SampleApp_Group.name, "Group 1", 7  );
        ; Setup parameters for call to function osal_memcpy
        MOV     ?V0 + 0,#`?<Constant "Group 1">` & 0xff
        MOV     ?V0 + 1,#(`?<Constant "Group 1">` >> 8) & 0xff
        MOV     ?V0 + 2,A
        MOV     R0,#?V0 + 0
        LCALL   ?PUSH_XSTACK_I_THREE
        CFI CFA_XSP16 add(XSP16, 43)
        MOV     R4,#0x7
        MOV     R5,#0x0
        MOV     R2,#(SampleApp_Group + 2) & 0xff
        MOV     R3,#((SampleApp_Group + 2) >> 8) & 0xff
        LCALL   ??osal_memcpy?relay
        MOV     A,#0x3
        LCALL   ?DEALLOC_XSTACK8
        CFI CFA_XSP16 add(XSP16, 40)
//  271   aps_AddGroup( SAMPLEAPP_ENDPOINT, &SampleApp_Group );
        ; Setup parameters for call to function aps_AddGroup
        MOV     R2,#SampleApp_Group & 0xff
        MOV     R3,#(SampleApp_Group >> 8) & 0xff
        MOV     R1,#0x14
        LCALL   ??aps_AddGroup?relay
//  272   
//  273   
//  274   //串口初始化
//  275   uartConfig.configured       = TRUE;
        MOV     DPL,?XSP + 0
        MOV     DPH,?XSP + 1
        MOV     A,#0x1
        MOVX    @DPTR,A
//  276   uartConfig.baudRate         = HAL_UART_BR_9600;
        LCALL   ?XSTACK_DISP0_8
        CLR     A
        MOVX    @DPTR,A
//  277   uartConfig.flowControl      = FALSE;
        MOV     A,#0x2
        LCALL   ?XSTACK_DISP0_8
        CLR     A
        MOVX    @DPTR,A
//  278   uartConfig.flowControlThreshold = MT_UART_THRESHOLD;//默认使用流控制
        MOV     A,#0x3
        LCALL   ?XSTACK_DISP0_8
        MOV     A,#0x40
        MOVX    @DPTR,A
        INC     DPTR
        CLR     A
        MOVX    @DPTR,A
//  279   uartConfig.rx.maxBufSize     = 200;
        MOV     A,#0xa
        LCALL   ?XSTACK_DISP0_8
        MOV     A,#-0x38
        MOVX    @DPTR,A
        INC     DPTR
        CLR     A
        MOVX    @DPTR,A
//  280   uartConfig.tx.maxBufSize     =200;
        MOV     A,#0x12
        LCALL   ?XSTACK_DISP0_8
        MOV     A,#-0x38
        MOVX    @DPTR,A
        INC     DPTR
        CLR     A
        MOVX    @DPTR,A
//  281   uartConfig.idleTimeout       = MT_UART_IDLE_TIMEOUT;
        MOV     A,#0x5
        LCALL   ?XSTACK_DISP0_8
        MOV     A,#0x6
        MOVX    @DPTR,A
//  282   uartConfig.intEnable          =TRUE;
        MOV     A,#0x16
        LCALL   ?XSTACK_DISP0_8
        MOV     A,#0x1
        MOVX    @DPTR,A
//  283   uartConfig.callBackFunc       =UART_CallBackFunction;
        MOV     A,#0x1b
        LCALL   ?XSTACK_DISP0_8
        MOV     A,#??UART_CallBackFunction?relay & 0xff
        MOVX    @DPTR,A
        INC     DPTR
        MOV     A,#(??UART_CallBackFunction?relay >> 8) & 0xff
        MOVX    @DPTR,A
//  284   HalUARTOpen(MY_DEFINI_UART_PORT,&uartConfig);//使用自定义的串口初始化变量来开启串口通讯
        ; Setup parameters for call to function HalUARTOpen
        MOV     DPL,?XSP + 0
        MOV     DPH,?XSP + 1
        MOV     R2,DPL
        MOV     R3,DPH
        MOV     R1,#0x0
        LCALL   ??HalUARTOpen?relay
//  285   
//  286 
//  287   
//  288 //  osal_start_timerEx(SampleApp_TaskID,USER_EVT,500);
//  289   
//  290   
//  291   
//  292   
//  293   
//  294 #if defined ( LCD_SUPPORTED )
//  295   HalLcdWriteString( "SampleApp", HAL_LCD_LINE_1 );
        ; Setup parameters for call to function HalLcdWriteString
        MOV     R1,#0x1
        MOV     R2,#`?<Constant "SampleApp">` & 0xff
        MOV     R3,#(`?<Constant "SampleApp">` >> 8) & 0xff
        LCALL   ??HalLcdWriteString?relay
//  296 #endif
//  297 }
        MOV     A,#0x1d
        LCALL   ?DEALLOC_XSTACK8
        CFI CFA_XSP16 add(XSP16, 11)
        MOV     R7,#0x3
        LJMP    ?BANKED_LEAVE_XDATA
        CFI EndBlock cfiBlock0
//  298 
//  299 /*********************************************************************
//  300 * @fn      SampleApp_ProcessEvent
//  301 *
//  302 * @brief   Generic Application Task event processor.  This function
//  303 *          is called to process all events for the task.  Events
//  304 *          include timers, messages and any other user defined events.
//  305 *
//  306 * @param   task_id  - The OSAL assigned task ID.
//  307 * @param   events - events to process.  This is a bit map and can
//  308 *                   contain more than one event.
//  309 *
//  310 * @return  none
//  311 */

        RSEG BANKED_CODE:CODE:NOROOT(0)
//  312 uint16 SampleApp_ProcessEvent( uint8 task_id, uint16 events )
SampleApp_ProcessEvent:
        CFI Block cfiBlock1 Using cfiCommon0
        CFI Function SampleApp_ProcessEvent
        CODE
//  313 {
        FUNCALL SampleApp_ProcessEvent, osal_msg_receive
        LOCFRAME ISTACK, 0, STACK
        LOCFRAME PSTACK, 0, STACK
        LOCFRAME XSTACK, 12, STACK
        LOCFRAME IOVERLAY, 0, STATIC
        LOCFRAME DOVERLAY, 0, STATIC
        ARGFRAME ISTACK, 0, STACK
        ARGFRAME PSTACK, 0, STACK
        ARGFRAME XSTACK, 12, STACK
        ARGFRAME IOVERLAY, 0, STATIC
        ARGFRAME DOVERLAY, 0, STATIC
        FUNCALL SampleApp_ProcessEvent, osal_start_timerEx
        LOCFRAME ISTACK, 0, STACK
        LOCFRAME PSTACK, 0, STACK
        LOCFRAME XSTACK, 12, STACK
        LOCFRAME IOVERLAY, 0, STATIC
        LOCFRAME DOVERLAY, 0, STATIC
        ARGFRAME ISTACK, 0, STACK
        ARGFRAME PSTACK, 0, STACK
        ARGFRAME XSTACK, 12, STACK
        ARGFRAME IOVERLAY, 0, STATIC
        ARGFRAME DOVERLAY, 0, STATIC
        FUNCALL SampleApp_ProcessEvent, osal_msg_deallocate
        LOCFRAME ISTACK, 0, STACK
        LOCFRAME PSTACK, 0, STACK
        LOCFRAME XSTACK, 12, STACK
        LOCFRAME IOVERLAY, 0, STATIC
        LOCFRAME DOVERLAY, 0, STATIC
        ARGFRAME ISTACK, 0, STACK
        ARGFRAME PSTACK, 0, STACK
        ARGFRAME XSTACK, 12, STACK
        ARGFRAME IOVERLAY, 0, STATIC
        ARGFRAME DOVERLAY, 0, STATIC
        FUNCALL SampleApp_ProcessEvent, osal_msg_receive
        LOCFRAME ISTACK, 0, STACK
        LOCFRAME PSTACK, 0, STACK
        LOCFRAME XSTACK, 12, STACK
        LOCFRAME IOVERLAY, 0, STATIC
        LOCFRAME DOVERLAY, 0, STATIC
        ARGFRAME ISTACK, 0, STACK
        ARGFRAME PSTACK, 0, STACK
        ARGFRAME XSTACK, 12, STACK
        ARGFRAME IOVERLAY, 0, STATIC
        ARGFRAME DOVERLAY, 0, STATIC
        FUNCALL SampleApp_ProcessEvent, SampleApp_HandleKeys
        LOCFRAME ISTACK, 0, STACK
        LOCFRAME PSTACK, 0, STACK
        LOCFRAME XSTACK, 12, STACK
        LOCFRAME IOVERLAY, 0, STATIC
        LOCFRAME DOVERLAY, 0, STATIC
        ARGFRAME ISTACK, 0, STACK
        ARGFRAME PSTACK, 0, STACK
        ARGFRAME XSTACK, 12, STACK
        ARGFRAME IOVERLAY, 0, STATIC
        ARGFRAME DOVERLAY, 0, STATIC
        FUNCALL SampleApp_ProcessEvent, SampleApp_MessageMSGCB
        LOCFRAME ISTACK, 0, STACK
        LOCFRAME PSTACK, 0, STACK
        LOCFRAME XSTACK, 12, STACK
        LOCFRAME IOVERLAY, 0, STATIC
        LOCFRAME DOVERLAY, 0, STATIC
        ARGFRAME ISTACK, 0, STACK
        ARGFRAME PSTACK, 0, STACK
        ARGFRAME XSTACK, 12, STACK
        ARGFRAME IOVERLAY, 0, STATIC
        ARGFRAME DOVERLAY, 0, STATIC
        MOV     A,#-0xc
        LCALL   ?BANKED_ENTER_XDATA
        CFI DPH0 load(1, XDATA, add(CFA_XSP16, literal(-1)))
        CFI DPL0 load(1, XDATA, add(CFA_XSP16, literal(-2)))
        CFI ?BRET_EXT load(1, XDATA, add(CFA_XSP16, literal(-3)))
        CFI ?RET_HIGH load(1, XDATA, add(CFA_XSP16, literal(-4)))
        CFI ?RET_LOW load(1, XDATA, add(CFA_XSP16, literal(-5)))
        CFI R7 load(1, XDATA, add(CFA_XSP16, literal(-6)))
        CFI V3 load(1, XDATA, add(CFA_XSP16, literal(-7)))
        CFI V2 load(1, XDATA, add(CFA_XSP16, literal(-8)))
        CFI V1 load(1, XDATA, add(CFA_XSP16, literal(-9)))
        CFI V0 load(1, XDATA, add(CFA_XSP16, literal(-10)))
        CFI VB load(1, XDATA, add(CFA_XSP16, literal(-11)))
        CFI R6 load(1, XDATA, add(CFA_XSP16, literal(-12)))
        CFI CFA_SP SP+0
        CFI CFA_XSP16 add(XSP16, 12)
        ; Saved register size: 12
        ; Auto size: 0
        MOV     ?V0 + 0,R2
        MOV     ?V0 + 1,R3
//  314   afIncomingMSGPacket_t *MSGpkt;
//  315   (void)task_id;  // Intentionally unreferenced parameter
//  316   
//  317   if ( events & SYS_EVENT_MSG )
        MOV     A,R3
        ANL     A,#0x80
        JZ      ??SampleApp_ProcessEvent_0
//  318   {
//  319     MSGpkt = (afIncomingMSGPacket_t *)osal_msg_receive( SampleApp_TaskID );
        ; Setup parameters for call to function osal_msg_receive
        SJMP    ??SampleApp_ProcessEvent_1
//  320     while ( MSGpkt )
//  321     {
//  322       switch ( MSGpkt->hdr.event )
//  323       {
//  324         // Received when a key is pressed
//  325       case KEY_CHANGE:
//  326         SampleApp_HandleKeys( ((keyChange_t *)MSGpkt)->state, ((keyChange_t *)MSGpkt)->keys );
//  327         break;
//  328         
//  329         // Received when a messages is received (OTA) for this endpoint
//  330       case AF_INCOMING_MSG_CMD:
//  331         SampleApp_MessageMSGCB( MSGpkt );
//  332         break;
//  333         
//  334         // Received whenever the device changes state in the network
//  335       case ZDO_STATE_CHANGE:
//  336         SampleApp_NwkState = (devStates_t)(MSGpkt->hdr.status);
??SampleApp_ProcessEvent_2:
        INC     DPTR
        MOVX    A,@DPTR
        MOV     DPTR,#SampleApp_NwkState
        MOVX    @DPTR,A
//  337         if (// (SampleApp_NwkState == DEV_ZB_COORD)|| //协调器只负责接收数据，不发送数据
//  338             (SampleApp_NwkState == DEV_ROUTER)
//  339               || (SampleApp_NwkState == DEV_END_DEVICE) )
        XRL     A,#0x7
        JZ      ??SampleApp_ProcessEvent_3
        MOVX    A,@DPTR
        XRL     A,#0x6
        JNZ     ??SampleApp_ProcessEvent_4
//  340         {
//  341           // Start sending the periodic message in a regular interval.
//  342           osal_start_timerEx( SampleApp_TaskID,
//  343                              SAMPLEAPP_SEND_PERIODIC_MSG_EVT,
//  344                              SAMPLEAPP_SEND_PERIODIC_MSG_TIMEOUT );
??SampleApp_ProcessEvent_3:
        ; Setup parameters for call to function osal_start_timerEx
        MOV     R4,#-0x18
        MOV     R5,#0x3
        MOV     R2,#0x1
        MOV     R3,#0x0
        MOV     DPTR,#SampleApp_TaskID
        MOVX    A,@DPTR
        MOV     R1,A
        LCALL   ??osal_start_timerEx?relay
//  345         }
//  346         else
//  347         {
//  348           // Device is no longer in the network
//  349         }
//  350         break;
//  351         
//  352       default:
//  353         break;
//  354       }
//  355       
//  356       // Release the memory
//  357       osal_msg_deallocate( (uint8 *)MSGpkt );
??SampleApp_ProcessEvent_4:
        ; Setup parameters for call to function osal_msg_deallocate
        MOV     A,R6
        MOV     R2,A
        MOV     A,R7
        MOV     R3,A
        LCALL   ??osal_msg_deallocate?relay
//  358       
//  359       // Next - if one is available
//  360       MSGpkt = (afIncomingMSGPacket_t *)osal_msg_receive( SampleApp_TaskID );
        ; Setup parameters for call to function osal_msg_receive
??SampleApp_ProcessEvent_1:
        MOV     DPTR,#SampleApp_TaskID
        MOVX    A,@DPTR
        MOV     R1,A
        LCALL   ??osal_msg_receive?relay
        MOV     ?V0 + 2,R2
        MOV     ?V0 + 3,R3
        MOV     R6,?V0 + 2
        MOV     R7,?V0 + 3
        MOV     A,R6
        ORL     A,R7
        JZ      ??SampleApp_ProcessEvent_5
        MOV     DPL,R6
        MOV     DPH,R7
        MOVX    A,@DPTR
        ADD     A,#-0x1a
        JZ      ??SampleApp_ProcessEvent_6
        ADD     A,#0x5a
        JZ      ??SampleApp_ProcessEvent_7
        ADD     A,#-0x11
        JZ      ??SampleApp_ProcessEvent_2
        SJMP    ??SampleApp_ProcessEvent_4
??SampleApp_ProcessEvent_7:
        ; Setup parameters for call to function SampleApp_HandleKeys
        INC     DPTR
        INC     DPTR
        INC     DPTR
        MOVX    A,@DPTR
        MOV     R2,A
        MOV     DPL,R6
        MOV     DPH,R7
        INC     DPTR
        INC     DPTR
        MOVX    A,@DPTR
        MOV     R1,A
        LCALL   ??SampleApp_HandleKeys?relay
        SJMP    ??SampleApp_ProcessEvent_4
??SampleApp_ProcessEvent_6:
        ; Setup parameters for call to function SampleApp_MessageMSGCB
        MOV     A,R6
        MOV     R2,A
        MOV     A,R7
        MOV     R3,A
        LCALL   ??SampleApp_MessageMSGCB?relay
        SJMP    ??SampleApp_ProcessEvent_4
//  361     }
//  362     
//  363     // return unprocessed events
//  364     return (events ^ SYS_EVENT_MSG);
??SampleApp_ProcessEvent_5:
        MOV     R2,?V0 + 0
        MOV     A,?V0 + 1
        XRL     A,#0x80
        MOV     R3,A
        SJMP    ??SampleApp_ProcessEvent_8
//  365   }
//  366   
//  367  /* 
//  368   if ( events & USER_EVT )//由于定义了p2p的目的节点为协调器，所以此处设置的是锚节点发送数据,使用自定义函数
//  369   {
//  370     // Send the periodic message
//  371     SampleApp_P2P_SendMessage();
//  372     osal_start_timerEx(SampleApp_TaskID, USER_EVT, 5000);
//  373     
//  374     // return unprocessed events
//  375     return (events ^ USER_EVT);
//  376   }
//  377   */
//  378   // Discard unknown events
//  379   return 0;
??SampleApp_ProcessEvent_0:
        MOV     R2,#0x0
        MOV     R3,#0x0
??SampleApp_ProcessEvent_8:
        MOV     R7,#0x4
        LJMP    ?BANKED_LEAVE_XDATA
        CFI EndBlock cfiBlock1
//  380 }
//  381 
//  382 /*********************************************************************
//  383 * Event Generation Functions
//  384 */
//  385 /*********************************************************************
//  386 * @fn      SampleApp_HandleKeys
//  387 *
//  388 * @brief   Handles all key events for this device.
//  389 *
//  390 * @param   shift - true if in shift/alt.
//  391 * @param   keys - bit field for key events. Valid entries:
//  392 *                 HAL_KEY_SW_2
//  393 *                 HAL_KEY_SW_1
//  394 *
//  395 * @return  none
//  396 */

        RSEG BANKED_CODE:CODE:NOROOT(0)
//  397 void SampleApp_HandleKeys( uint8 shift, uint8 keys )
SampleApp_HandleKeys:
        CFI Block cfiBlock2 Using cfiCommon0
        CFI Function SampleApp_HandleKeys
        CODE
//  398 {
        FUNCALL SampleApp_HandleKeys, aps_FindGroup
        LOCFRAME ISTACK, 0, STACK
        LOCFRAME PSTACK, 0, STACK
        LOCFRAME XSTACK, 10, STACK
        LOCFRAME IOVERLAY, 0, STATIC
        LOCFRAME DOVERLAY, 0, STATIC
        ARGFRAME ISTACK, 0, STACK
        ARGFRAME PSTACK, 0, STACK
        ARGFRAME XSTACK, 10, STACK
        ARGFRAME IOVERLAY, 0, STATIC
        ARGFRAME DOVERLAY, 0, STATIC
        FUNCALL SampleApp_HandleKeys, aps_RemoveGroup
        LOCFRAME ISTACK, 0, STACK
        LOCFRAME PSTACK, 0, STACK
        LOCFRAME XSTACK, 10, STACK
        LOCFRAME IOVERLAY, 0, STATIC
        LOCFRAME DOVERLAY, 0, STATIC
        ARGFRAME ISTACK, 0, STACK
        ARGFRAME PSTACK, 0, STACK
        ARGFRAME XSTACK, 10, STACK
        ARGFRAME IOVERLAY, 0, STATIC
        ARGFRAME DOVERLAY, 0, STATIC
        FUNCALL SampleApp_HandleKeys, aps_AddGroup
        LOCFRAME ISTACK, 0, STACK
        LOCFRAME PSTACK, 0, STACK
        LOCFRAME XSTACK, 10, STACK
        LOCFRAME IOVERLAY, 0, STATIC
        LOCFRAME DOVERLAY, 0, STATIC
        ARGFRAME ISTACK, 0, STACK
        ARGFRAME PSTACK, 0, STACK
        ARGFRAME XSTACK, 10, STACK
        ARGFRAME IOVERLAY, 0, STATIC
        ARGFRAME DOVERLAY, 0, STATIC
        MOV     A,#-0xa
        LCALL   ?BANKED_ENTER_XDATA
        CFI DPH0 load(1, XDATA, add(CFA_XSP16, literal(-1)))
        CFI DPL0 load(1, XDATA, add(CFA_XSP16, literal(-2)))
        CFI ?BRET_EXT load(1, XDATA, add(CFA_XSP16, literal(-3)))
        CFI ?RET_HIGH load(1, XDATA, add(CFA_XSP16, literal(-4)))
        CFI ?RET_LOW load(1, XDATA, add(CFA_XSP16, literal(-5)))
        CFI R7 load(1, XDATA, add(CFA_XSP16, literal(-6)))
        CFI V1 load(1, XDATA, add(CFA_XSP16, literal(-7)))
        CFI V0 load(1, XDATA, add(CFA_XSP16, literal(-8)))
        CFI VB load(1, XDATA, add(CFA_XSP16, literal(-9)))
        CFI R6 load(1, XDATA, add(CFA_XSP16, literal(-10)))
        CFI CFA_SP SP+0
        CFI CFA_XSP16 add(XSP16, 10)
        ; Saved register size: 10
        ; Auto size: 0
        MOV     A,R2
//  399   (void)shift;  // Intentionally unreferenced parameter
//  400   
//  401   if ( keys & HAL_KEY_SW_1 )
//  402   {
//  403     /* This key sends the Flash Command is sent to Group 1.
//  404     * This device will not receive the Flash Command from this
//  405     * device (even if it belongs to group 1).
//  406     */
//  407     //SampleApp_SendFlashMessage( SAMPLEAPP_FLASH_DURATION );
//  408   }
//  409   
//  410   if ( keys & HAL_KEY_SW_2 )
        MOV     C,0xE0 /* A   */.1
        JNC     ??SampleApp_HandleKeys_0
//  411   {
//  412     /* The Flashr Command is sent to Group 1.
//  413     * This key toggles this device in and out of group 1.
//  414     * If this device doesn't belong to group 1, this application
//  415     * will not receive the Flash command sent to group 1.
//  416     */
//  417     aps_Group_t *grp;
//  418     grp = aps_FindGroup( SAMPLEAPP_ENDPOINT, SAMPLEAPP_FLASH_GROUP );
//  419     if ( grp )
        ; Setup parameters for call to function aps_FindGroup
        MOV     R2,#0x1
        MOV     R3,#0x0
        MOV     R1,#0x14
        LCALL   ??aps_FindGroup?relay
        MOV     ?V0 + 1,R3
        MOV     A,R2
        ORL     A,?V0 + 1
        JZ      ??SampleApp_HandleKeys_1
//  420     {
//  421       // Remove from the group
//  422       aps_RemoveGroup( SAMPLEAPP_ENDPOINT, SAMPLEAPP_FLASH_GROUP );
        ; Setup parameters for call to function aps_RemoveGroup
        MOV     R2,#0x1
        MOV     R3,#0x0
        MOV     R1,#0x14
        LCALL   ??aps_RemoveGroup?relay
        SJMP    ??SampleApp_HandleKeys_0
//  423     }
//  424     else
//  425     {
//  426       // Add to the flash group
//  427       aps_AddGroup( SAMPLEAPP_ENDPOINT, &SampleApp_Group );
??SampleApp_HandleKeys_1:
        ; Setup parameters for call to function aps_AddGroup
        MOV     R2,#SampleApp_Group & 0xff
        MOV     R3,#(SampleApp_Group >> 8) & 0xff
        MOV     R1,#0x14
        LCALL   ??aps_AddGroup?relay
        CFI EndBlock cfiBlock2
//  428     }
//  429   }
//  430 }
??SampleApp_HandleKeys_0:
        REQUIRE ?Subroutine0
        ; // Fall through to label ?Subroutine0

        RSEG BANKED_CODE:CODE:NOROOT(0)
?Subroutine0:
        CFI Block cfiBlock3 Using cfiCommon0
        CFI NoFunction
        CFI CFA_SP SP+0
        CFI CFA_XSP16 add(XSP16, 10)
        CFI VB load(1, XDATA, add(CFA_XSP16, literal(-9)))
        CFI DPL0 load(1, XDATA, add(CFA_XSP16, literal(-2)))
        CFI DPH0 load(1, XDATA, add(CFA_XSP16, literal(-1)))
        CFI R6 load(1, XDATA, add(CFA_XSP16, literal(-10)))
        CFI R7 load(1, XDATA, add(CFA_XSP16, literal(-6)))
        CFI V0 load(1, XDATA, add(CFA_XSP16, literal(-8)))
        CFI V1 load(1, XDATA, add(CFA_XSP16, literal(-7)))
        CFI ?BRET_EXT load(1, XDATA, add(CFA_XSP16, literal(-3)))
        CFI ?RET_HIGH load(1, XDATA, add(CFA_XSP16, literal(-4)))
        CFI ?RET_LOW load(1, XDATA, add(CFA_XSP16, literal(-5)))
        MOV     R7,#0x2
        LJMP    ?BANKED_LEAVE_XDATA
        CFI EndBlock cfiBlock3
//  431 
//  432 /*********************************************************************
//  433 * LOCAL FUNCTIONS
//  434 */
//  435 
//  436 /*********************************************************************
//  437 * @fn      SampleApp_MessageMSGCB
//  438 *
//  439 * @brief   Data message processor callback.  This function processes
//  440 *          any incoming data - probably from other devices.  So, based
//  441 *          on cluster ID, perform the intended action.
//  442 *
//  443 * @param   none
//  444 *
//  445 * @return  none
//  446 */

        RSEG BANKED_CODE:CODE:NOROOT(0)
//  447 void SampleApp_MessageMSGCB( afIncomingMSGPacket_t *pkt )//在本函数中应该对接收到的盲节点的RSSI值信息处理
SampleApp_MessageMSGCB:
        CFI Block cfiBlock4 Using cfiCommon0
        CFI Function SampleApp_MessageMSGCB
        CODE
//  448 {
        FUNCALL SampleApp_MessageMSGCB, SampleApp_P2P_SendMessage
        LOCFRAME ISTACK, 0, STACK
        LOCFRAME PSTACK, 0, STACK
        LOCFRAME XSTACK, 10, STACK
        LOCFRAME IOVERLAY, 0, STATIC
        LOCFRAME DOVERLAY, 0, STATIC
        ARGFRAME ISTACK, 0, STACK
        ARGFRAME PSTACK, 0, STACK
        ARGFRAME XSTACK, 10, STACK
        ARGFRAME IOVERLAY, 0, STATIC
        ARGFRAME DOVERLAY, 0, STATIC
        MOV     A,#-0xa
        LCALL   ?BANKED_ENTER_XDATA
        CFI DPH0 load(1, XDATA, add(CFA_XSP16, literal(-1)))
        CFI DPL0 load(1, XDATA, add(CFA_XSP16, literal(-2)))
        CFI ?BRET_EXT load(1, XDATA, add(CFA_XSP16, literal(-3)))
        CFI ?RET_HIGH load(1, XDATA, add(CFA_XSP16, literal(-4)))
        CFI ?RET_LOW load(1, XDATA, add(CFA_XSP16, literal(-5)))
        CFI R7 load(1, XDATA, add(CFA_XSP16, literal(-6)))
        CFI V1 load(1, XDATA, add(CFA_XSP16, literal(-7)))
        CFI V0 load(1, XDATA, add(CFA_XSP16, literal(-8)))
        CFI VB load(1, XDATA, add(CFA_XSP16, literal(-9)))
        CFI R6 load(1, XDATA, add(CFA_XSP16, literal(-10)))
        CFI CFA_SP SP+0
        CFI CFA_XSP16 add(XSP16, 10)
        ; Saved register size: 10
        ; Auto size: 0
//  449 
//  450   
//  451   switch ( pkt->clusterId )
        MOV     DPL,R2
        MOV     DPH,R3
        INC     DPTR
        INC     DPTR
        INC     DPTR
        INC     DPTR
        MOVX    A,@DPTR
        XRL     A,#0x8
        JNZ     ??SampleApp_MessageMSGCB_0
        INC     DPTR
        MOVX    A,@DPTR
??SampleApp_MessageMSGCB_0:
        JZ      $+5
        LJMP    ??SampleApp_MessageMSGCB_1 & 0xFFFF
//  452   {
//  453     //本句确定只有在路由器中才编译此函数，协调器不编译
//  454   case SAMPLEAPP_BLIND_CLUSTERID://说明是盲节点发送来的数据，只有参考节点接收盲节点的信息
//  455     //    SamplaAPP_ProcessBlindData(pkt );
//  456    
//  457 //  HalUARTWrite(0, pkt->cmd.Data, pkt->cmd.DataLength);   
//  458     rssi_val[rssi_index++] = ((~pkt->rssi)+1); //得到rssi的值，并保存      
        MOV     A,R2
        ADD     A,#0x18
        MOV     DPL,A
        MOV     A,R3
        ADDC    A,#0x0
        MOV     DPH,A
        MOVX    A,@DPTR
        CPL     A
        INC     A
        PUSH    A
        CFI CFA_SP SP+-1
        MOV     DPTR,#rssi_index
        MOVX    A,@DPTR
        MOV     R0,A
        MOV     A,#rssi_val & 0xff
        ADD     A,R0
        MOV     DPL,A
        MOV     A,#(rssi_val >> 8) & 0xff
        ADDC    A,#0x0
        MOV     DPH,A
        POP     A
        CFI CFA_SP SP+0
        MOVX    @DPTR,A
        MOV     DPTR,#rssi_index
        MOVX    A,@DPTR
        INC     A
        MOVX    @DPTR,A
//  459     if(rssi_index == 10)//当接收到10次RSSI后进行平均值计算
        XRL     A,#0xa
        JZ      $+5
        LJMP    ??SampleApp_MessageMSGCB_1 & 0xFFFF
//  460     {   
//  461       uint8 i,max_i,min_i; 
//  462       uint16 val = 0;
        MOV     R4,#0x0
        MOV     R5,#0x0
//  463       //去除最大最小值，剩下的求取平均值;
//  464       max_i = min_i = 0;          
        MOV     R6,#0x0
        MOV     R7,#0x0
//  465       for(i = 1; i<10; i++)
        MOV     R0,#0x1
//  466       {
//  467         if(rssi_val[i]>rssi_val[max_i])
??SampleApp_MessageMSGCB_2:
        LCALL   ?Subroutine1 & 0xFFFF
??CrossCallReturnLabel_0:
        MOV     ?V0 + 0,R7
        LCALL   ?Subroutine2 & 0xFFFF
??CrossCallReturnLabel_2:
        CLR     C
        SUBB    A,R2
        JNC     ??SampleApp_MessageMSGCB_3
//  468           max_i = i;              
        MOV     A,R0
        MOV     R7,A
//  469         if(rssi_val[i]<rssi_val[min_i])
??SampleApp_MessageMSGCB_3:
        MOV     ?V0 + 0,R6
        LCALL   ?Subroutine2 & 0xFFFF
??CrossCallReturnLabel_3:
        MOV     R1,A
        MOV     A,R2
        CLR     C
        SUBB    A,R1
        JNC     ??SampleApp_MessageMSGCB_4
//  470           min_i = i;
        MOV     A,R0
        MOV     R6,A
//  471       }          
??SampleApp_MessageMSGCB_4:
        INC     R0
        MOV     A,R0
        CLR     C
        SUBB    A,#0xa
        JC      ??SampleApp_MessageMSGCB_2
//  472       for(i = 0; i<10; i++)
        MOV     R0,#0x0
//  473       {
//  474         if(i!=max_i && i!=min_i)
??SampleApp_MessageMSGCB_5:
        MOV     A,R7
        XRL     A,R0
        JZ      ??SampleApp_MessageMSGCB_6
        MOV     A,R6
        XRL     A,R0
        JZ      ??SampleApp_MessageMSGCB_6
//  475           val+=rssi_val[i];//去除最大最小值之后的8次RSSI值的总和
        LCALL   ?Subroutine1 & 0xFFFF
//  476       }          
??CrossCallReturnLabel_1:
        MOV     A,R4
        ADD     A,R2
        MOV     R4,A
        MOV     A,R5
        ADDC    A,#0x0
        MOV     R5,A
??SampleApp_MessageMSGCB_6:
        INC     R0
        MOV     A,R0
        CLR     C
        SUBB    A,#0xa
        JC      ??SampleApp_MessageMSGCB_5
//  477       val >>= 3;//右移为除法，右移三位表示除以8（val为8次的RSSI值的和）
        MOV     ?V0 + 0,R4
        MOV     ?V0 + 1,R5
        MOV     A,#0x3
        MOV     R0,#?V0 + 0
        LCALL   ?US_SHR
        MOV     R4,?V0 + 0
        MOV     R5,?V0 + 1
//  478       
//  479       //      rssi_s[0] ='A';
//  480       rssi_s[0] = val/100+0x30;//ASCII编码 0x30对应的是数字 0。这里加上这个数就是要显示数字字符
        MOV     A,R4
        MOV     R0,A
        MOV     A,R5
        MOV     R1,A
        MOV     R2,#0x64
        MOV     R3,#0x0
        LCALL   ?US_DIV_MOD
        MOV     A,R0
        ADD     A,#0x30
        MOV     DPTR,#rssi_s
        MOVX    @DPTR,A
//  481       rssi_s[1] = val%100/10+0x30;
        MOV     A,R4
        MOV     R0,A
        MOV     A,R5
        MOV     R1,A
        MOV     R2,#0x64
        MOV     R3,#0x0
        LCALL   ?US_DIV_MOD
        MOV     A,R2
        MOV     R0,A
        MOV     A,R3
        MOV     R1,A
        MOV     R2,#0xa
        MOV     R3,#0x0
        LCALL   ?US_DIV_MOD
        MOV     A,R0
        ADD     A,#0x30
        INC     DPTR
        MOVX    @DPTR,A
//  482       rssi_s[2] = val%10+0x30;//以上三句分别代表得到：米，分米，厘米      
        MOV     A,R4
        MOV     R0,A
        MOV     A,R5
        MOV     R1,A
        MOV     R2,#0xa
        MOV     R3,#0x0
        LCALL   ?US_DIV_MOD
        MOV     A,R2
        ADD     A,#0x30
        INC     DPTR
        MOVX    @DPTR,A
//  483 
//  484       SampleApp_P2P_SendMessage();
        ; Setup parameters for call to function SampleApp_P2P_SendMessage
        LCALL   ??SampleApp_P2P_SendMessage?relay
//  485       rssi_index = 0;//每收到十次RSSI值计算一次需要的RSSI均值
        MOV     DPTR,#rssi_index
        CLR     A
        MOVX    @DPTR,A
//  486 
//  487       
//  488     }
//  489     break;
//  490     
//  491     
//  492     
//  493   }
//  494 }
??SampleApp_MessageMSGCB_1:
        LJMP    ?Subroutine0 & 0xFFFF
        CFI EndBlock cfiBlock4

        RSEG BANKED_CODE:CODE:NOROOT(0)
?Subroutine2:
        CFI Block cfiCond5 Using cfiCommon0
        CFI NoFunction
        CFI Conditional ??CrossCallReturnLabel_2
        CFI R6 load(1, XDATA, add(CFA_XSP16, literal(-10)))
        CFI VB load(1, XDATA, add(CFA_XSP16, literal(-9)))
        CFI V0 load(1, XDATA, add(CFA_XSP16, literal(-8)))
        CFI V1 load(1, XDATA, add(CFA_XSP16, literal(-7)))
        CFI R7 load(1, XDATA, add(CFA_XSP16, literal(-6)))
        CFI ?RET_LOW load(1, XDATA, add(CFA_XSP16, literal(-5)))
        CFI ?RET_HIGH load(1, XDATA, add(CFA_XSP16, literal(-4)))
        CFI ?BRET_EXT load(1, XDATA, add(CFA_XSP16, literal(-3)))
        CFI DPL0 load(1, XDATA, add(CFA_XSP16, literal(-2)))
        CFI DPH0 load(1, XDATA, add(CFA_XSP16, literal(-1)))
        CFI CFA_SP SP+0
        CFI CFA_XSP16 add(XSP16, 10)
        CFI Block cfiCond6 Using cfiCommon0
        CFI (cfiCond6) NoFunction
        CFI (cfiCond6) Conditional ??CrossCallReturnLabel_3
        CFI (cfiCond6) R6 load(1, XDATA, add(CFA_XSP16, literal(-10)))
        CFI (cfiCond6) VB load(1, XDATA, add(CFA_XSP16, literal(-9)))
        CFI (cfiCond6) V0 load(1, XDATA, add(CFA_XSP16, literal(-8)))
        CFI (cfiCond6) V1 load(1, XDATA, add(CFA_XSP16, literal(-7)))
        CFI (cfiCond6) R7 load(1, XDATA, add(CFA_XSP16, literal(-6)))
        CFI (cfiCond6) ?RET_LOW load(1, XDATA, add(CFA_XSP16, literal(-5)))
        CFI (cfiCond6) ?RET_HIGH load(1, XDATA, add(CFA_XSP16, literal(-4)))
        CFI (cfiCond6) ?BRET_EXT load(1, XDATA, add(CFA_XSP16, literal(-3)))
        CFI (cfiCond6) DPL0 load(1, XDATA, add(CFA_XSP16, literal(-2)))
        CFI (cfiCond6) DPH0 load(1, XDATA, add(CFA_XSP16, literal(-1)))
        CFI (cfiCond6) CFA_SP SP+0
        CFI (cfiCond6) CFA_XSP16 add(XSP16, 10)
        CFI Block cfiPicker7 Using cfiCommon1
        CFI (cfiPicker7) NoFunction
        CFI (cfiPicker7) Picker
        LCALL   ?Subroutine3 & 0xFFFF
??CrossCallReturnLabel_5:
        RET
        CFI EndBlock cfiCond5
        CFI EndBlock cfiCond6
        CFI EndBlock cfiPicker7

        RSEG BANKED_CODE:CODE:NOROOT(0)
?Subroutine3:
        CFI Block cfiCond8 Using cfiCommon0
        CFI NoFunction
        CFI Conditional ??CrossCallReturnLabel_5, ??CrossCallReturnLabel_2
        CFI R6 load(1, XDATA, add(CFA_XSP16, literal(-10)))
        CFI VB load(1, XDATA, add(CFA_XSP16, literal(-9)))
        CFI V0 load(1, XDATA, add(CFA_XSP16, literal(-8)))
        CFI V1 load(1, XDATA, add(CFA_XSP16, literal(-7)))
        CFI R7 load(1, XDATA, add(CFA_XSP16, literal(-6)))
        CFI ?RET_LOW load(1, XDATA, add(CFA_XSP16, literal(-5)))
        CFI ?RET_HIGH load(1, XDATA, add(CFA_XSP16, literal(-4)))
        CFI ?BRET_EXT load(1, XDATA, add(CFA_XSP16, literal(-3)))
        CFI DPL0 load(1, XDATA, add(CFA_XSP16, literal(-2)))
        CFI DPH0 load(1, XDATA, add(CFA_XSP16, literal(-1)))
        CFI CFA_SP SP+0
        CFI CFA_XSP16 add(XSP16, 10)
        CFI Block cfiCond9 Using cfiCommon0
        CFI (cfiCond9) NoFunction
        CFI (cfiCond9) Conditional ??CrossCallReturnLabel_5, ??CrossCallReturnLabel_3
        CFI (cfiCond9) R6 load(1, XDATA, add(CFA_XSP16, literal(-10)))
        CFI (cfiCond9) VB load(1, XDATA, add(CFA_XSP16, literal(-9)))
        CFI (cfiCond9) V0 load(1, XDATA, add(CFA_XSP16, literal(-8)))
        CFI (cfiCond9) V1 load(1, XDATA, add(CFA_XSP16, literal(-7)))
        CFI (cfiCond9) R7 load(1, XDATA, add(CFA_XSP16, literal(-6)))
        CFI (cfiCond9) ?RET_LOW load(1, XDATA, add(CFA_XSP16, literal(-5)))
        CFI (cfiCond9) ?RET_HIGH load(1, XDATA, add(CFA_XSP16, literal(-4)))
        CFI (cfiCond9) ?BRET_EXT load(1, XDATA, add(CFA_XSP16, literal(-3)))
        CFI (cfiCond9) DPL0 load(1, XDATA, add(CFA_XSP16, literal(-2)))
        CFI (cfiCond9) DPH0 load(1, XDATA, add(CFA_XSP16, literal(-1)))
        CFI (cfiCond9) CFA_SP SP+0
        CFI (cfiCond9) CFA_XSP16 add(XSP16, 10)
        CFI Block cfiCond10 Using cfiCommon0
        CFI (cfiCond10) NoFunction
        CFI (cfiCond10) Conditional ??CrossCallReturnLabel_4, ??CrossCallReturnLabel_0
        CFI (cfiCond10) R6 load(1, XDATA, add(CFA_XSP16, literal(-10)))
        CFI (cfiCond10) VB load(1, XDATA, add(CFA_XSP16, literal(-9)))
        CFI (cfiCond10) V0 load(1, XDATA, add(CFA_XSP16, literal(-8)))
        CFI (cfiCond10) V1 load(1, XDATA, add(CFA_XSP16, literal(-7)))
        CFI (cfiCond10) R7 load(1, XDATA, add(CFA_XSP16, literal(-6)))
        CFI (cfiCond10) ?RET_LOW load(1, XDATA, add(CFA_XSP16, literal(-5)))
        CFI (cfiCond10) ?RET_HIGH load(1, XDATA, add(CFA_XSP16, literal(-4)))
        CFI (cfiCond10) ?BRET_EXT load(1, XDATA, add(CFA_XSP16, literal(-3)))
        CFI (cfiCond10) DPL0 load(1, XDATA, add(CFA_XSP16, literal(-2)))
        CFI (cfiCond10) DPH0 load(1, XDATA, add(CFA_XSP16, literal(-1)))
        CFI (cfiCond10) CFA_SP SP+0
        CFI (cfiCond10) CFA_XSP16 add(XSP16, 10)
        CFI Block cfiCond11 Using cfiCommon0
        CFI (cfiCond11) NoFunction
        CFI (cfiCond11) Conditional ??CrossCallReturnLabel_4, ??CrossCallReturnLabel_1
        CFI (cfiCond11) R6 load(1, XDATA, add(CFA_XSP16, literal(-10)))
        CFI (cfiCond11) VB load(1, XDATA, add(CFA_XSP16, literal(-9)))
        CFI (cfiCond11) V0 load(1, XDATA, add(CFA_XSP16, literal(-8)))
        CFI (cfiCond11) V1 load(1, XDATA, add(CFA_XSP16, literal(-7)))
        CFI (cfiCond11) R7 load(1, XDATA, add(CFA_XSP16, literal(-6)))
        CFI (cfiCond11) ?RET_LOW load(1, XDATA, add(CFA_XSP16, literal(-5)))
        CFI (cfiCond11) ?RET_HIGH load(1, XDATA, add(CFA_XSP16, literal(-4)))
        CFI (cfiCond11) ?BRET_EXT load(1, XDATA, add(CFA_XSP16, literal(-3)))
        CFI (cfiCond11) DPL0 load(1, XDATA, add(CFA_XSP16, literal(-2)))
        CFI (cfiCond11) DPH0 load(1, XDATA, add(CFA_XSP16, literal(-1)))
        CFI (cfiCond11) CFA_SP SP+0
        CFI (cfiCond11) CFA_XSP16 add(XSP16, 10)
        CFI Block cfiPicker12 Using cfiCommon1
        CFI (cfiPicker12) NoFunction
        CFI (cfiPicker12) Picker
        MOV     A,#rssi_val & 0xff
        ADD     A,?V0 + 0
        MOV     DPL,A
        MOV     A,#(rssi_val >> 8) & 0xff
        ADDC    A,#0x0
        MOV     DPH,A
        MOVX    A,@DPTR
        RET
        CFI EndBlock cfiCond8
        CFI EndBlock cfiCond9
        CFI EndBlock cfiCond10
        CFI EndBlock cfiCond11
        CFI EndBlock cfiPicker12

        RSEG BANKED_CODE:CODE:NOROOT(0)
?Subroutine1:
        CFI Block cfiCond13 Using cfiCommon0
        CFI NoFunction
        CFI Conditional ??CrossCallReturnLabel_0
        CFI R6 load(1, XDATA, add(CFA_XSP16, literal(-10)))
        CFI VB load(1, XDATA, add(CFA_XSP16, literal(-9)))
        CFI V0 load(1, XDATA, add(CFA_XSP16, literal(-8)))
        CFI V1 load(1, XDATA, add(CFA_XSP16, literal(-7)))
        CFI R7 load(1, XDATA, add(CFA_XSP16, literal(-6)))
        CFI ?RET_LOW load(1, XDATA, add(CFA_XSP16, literal(-5)))
        CFI ?RET_HIGH load(1, XDATA, add(CFA_XSP16, literal(-4)))
        CFI ?BRET_EXT load(1, XDATA, add(CFA_XSP16, literal(-3)))
        CFI DPL0 load(1, XDATA, add(CFA_XSP16, literal(-2)))
        CFI DPH0 load(1, XDATA, add(CFA_XSP16, literal(-1)))
        CFI CFA_SP SP+0
        CFI CFA_XSP16 add(XSP16, 10)
        CFI Block cfiCond14 Using cfiCommon0
        CFI (cfiCond14) NoFunction
        CFI (cfiCond14) Conditional ??CrossCallReturnLabel_1
        CFI (cfiCond14) R6 load(1, XDATA, add(CFA_XSP16, literal(-10)))
        CFI (cfiCond14) VB load(1, XDATA, add(CFA_XSP16, literal(-9)))
        CFI (cfiCond14) V0 load(1, XDATA, add(CFA_XSP16, literal(-8)))
        CFI (cfiCond14) V1 load(1, XDATA, add(CFA_XSP16, literal(-7)))
        CFI (cfiCond14) R7 load(1, XDATA, add(CFA_XSP16, literal(-6)))
        CFI (cfiCond14) ?RET_LOW load(1, XDATA, add(CFA_XSP16, literal(-5)))
        CFI (cfiCond14) ?RET_HIGH load(1, XDATA, add(CFA_XSP16, literal(-4)))
        CFI (cfiCond14) ?BRET_EXT load(1, XDATA, add(CFA_XSP16, literal(-3)))
        CFI (cfiCond14) DPL0 load(1, XDATA, add(CFA_XSP16, literal(-2)))
        CFI (cfiCond14) DPH0 load(1, XDATA, add(CFA_XSP16, literal(-1)))
        CFI (cfiCond14) CFA_SP SP+0
        CFI (cfiCond14) CFA_XSP16 add(XSP16, 10)
        CFI Block cfiPicker15 Using cfiCommon1
        CFI (cfiPicker15) NoFunction
        CFI (cfiPicker15) Picker
        MOV     ?V0 + 0,R0
        LCALL   ?Subroutine3 & 0xFFFF
??CrossCallReturnLabel_4:
        MOV     R2,A
        RET
        CFI EndBlock cfiCond13
        CFI EndBlock cfiCond14
        CFI EndBlock cfiPicker15
//  495 
//  496 
//  497 /*********************************************************************
//  498 *********************************************************************/

        RSEG BANKED_CODE:CODE:NOROOT(0)
//  499 static void UART_CallBackFunction(uint8 port, uint8 event)
UART_CallBackFunction:
        CFI Block cfiBlock16 Using cfiCommon0
        CFI Function UART_CallBackFunction
        CODE
//  500 {
        FUNCALL UART_CallBackFunction, Hal_UART_RxBufLen
        LOCFRAME ISTACK, 2, STACK
        LOCFRAME PSTACK, 0, STACK
        LOCFRAME XSTACK, 0, STACK
        LOCFRAME IOVERLAY, 0, STATIC
        LOCFRAME DOVERLAY, 0, STATIC
        ARGFRAME ISTACK, 2, STACK
        ARGFRAME PSTACK, 0, STACK
        ARGFRAME XSTACK, 0, STACK
        ARGFRAME IOVERLAY, 0, STATIC
        ARGFRAME DOVERLAY, 0, STATIC
        FUNCALL UART_CallBackFunction, HalUARTRead
        LOCFRAME ISTACK, 2, STACK
        LOCFRAME PSTACK, 0, STACK
        LOCFRAME XSTACK, 0, STACK
        LOCFRAME IOVERLAY, 0, STATIC
        LOCFRAME DOVERLAY, 0, STATIC
        ARGFRAME ISTACK, 2, STACK
        ARGFRAME PSTACK, 0, STACK
        ARGFRAME XSTACK, 0, STACK
        ARGFRAME IOVERLAY, 0, STATIC
        ARGFRAME DOVERLAY, 0, STATIC
        FUNCALL UART_CallBackFunction, HalUARTWrite
        LOCFRAME ISTACK, 2, STACK
        LOCFRAME PSTACK, 0, STACK
        LOCFRAME XSTACK, 0, STACK
        LOCFRAME IOVERLAY, 0, STATIC
        LOCFRAME DOVERLAY, 0, STATIC
        ARGFRAME ISTACK, 2, STACK
        ARGFRAME PSTACK, 0, STACK
        ARGFRAME XSTACK, 0, STACK
        ARGFRAME IOVERLAY, 0, STATIC
        ARGFRAME DOVERLAY, 0, STATIC
        PUSH    DPL
        CFI DPL0 Frame(CFA_SP, 4)
        CFI CFA_SP SP+-4
        PUSH    DPH
        CFI DPH0 Frame(CFA_SP, 5)
        CFI CFA_SP SP+-5
        ; Saved register size: 2
        ; Auto size: 0
//  501   uint8 RX_Flag = 0;
//  502   RX_Length = 0;//接收字符串长度
        MOV     DPTR,#RX_Length
        CLR     A
        MOVX    @DPTR,A
//  503   RX_Flag = RX_Length = Hal_UART_RxBufLen(MY_DEFINI_UART_PORT);// 接收到的字符串长度
        ; Setup parameters for call to function Hal_UART_RxBufLen
        MOV     R1,A
        LCALL   ??Hal_UART_RxBufLen?relay
        MOV     A,R2
        MOV     DPTR,#RX_Length
        MOVX    @DPTR,A
//  504   
//  505   if(RX_Flag != 0)// 有数据存在
        JZ      ??UART_CallBackFunction_0
//  506   {
//  507     //读取串口数据
//  508     HalUARTRead(MY_DEFINI_UART_PORT,RX_BUFFER,RX_Length);
        ; Setup parameters for call to function HalUARTRead
        MOV     R4,A
        MOV     R5,#0x0
        MOV     R2,#RX_BUFFER & 0xff
        MOV     R3,#(RX_BUFFER >> 8) & 0xff
        MOV     R1,#0x0
        LCALL   ??HalUARTRead?relay
//  509     {
//  510       //将数据发回给电脑，使用hal_uart.h的接口函数
//  511       HalUARTWrite(MY_DEFINI_UART_PORT,RX_BUFFER,RX_Length);
        ; Setup parameters for call to function HalUARTWrite
        MOV     DPTR,#RX_Length
        MOVX    A,@DPTR
        MOV     R4,A
        MOV     R5,#0x0
        MOV     R2,#RX_BUFFER & 0xff
        MOV     R3,#(RX_BUFFER >> 8) & 0xff
        MOV     R1,#0x0
        LCALL   ??HalUARTWrite?relay
//  512     }
//  513   }
//  514   
//  515 }
??UART_CallBackFunction_0:
        POP     DPH
        CFI DPH0 SameValue
        CFI CFA_SP SP+-4
        POP     DPL
        CFI DPL0 SameValue
        CFI CFA_SP SP+-3
        LJMP    ?BRET
        CFI EndBlock cfiBlock16
//  516 
//  517 
//  518 
//  519 /*
//  520 本函数是参考节点处理盲节点的数据处理函数，在本函数中应该得到锚节点与盲节点之间的距离，
//  521 然后锚节点在发送数据的时候，将这个距离值也发送出去
//  522 */
//  523 
//  524 
//  525 
//  526 /*********************************************************************
//  527 * @fn      SampleApp_P2P_SendMessage
//  528 *
//  529 * @brief   point to point.
//  530 *
//  531 * @param   none
//  532 *
//  533 * @return  none
//  534 在每个路由器或终端节点发送数据时，通过标定AF_DataRequest中的簇ID，就可以简单的
//  535 将设备进行分类，即通过设置不同的ID来标定不同的设备，然后在协调器端，通过对接收到
//  536 的消息的簇ID，来鉴别出是哪个设备发送来的数据
//  537 */

        RSEG BANKED_CODE:CODE:NOROOT(0)
//  538 void SampleApp_P2P_SendMessage( void )
SampleApp_P2P_SendMessage:
        CFI Block cfiBlock17 Using cfiCommon0
        CFI Function SampleApp_P2P_SendMessage
        CODE
//  539 //后期参考节点在发送数据的时候，必须发送的是参考节点与盲节点之间的距离值
//  540 {
        FUNCALL SampleApp_P2P_SendMessage, AF_DataRequest
        LOCFRAME ISTACK, 0, STACK
        LOCFRAME PSTACK, 0, STACK
        LOCFRAME XSTACK, 19, STACK
        LOCFRAME IOVERLAY, 0, STATIC
        LOCFRAME DOVERLAY, 0, STATIC
        ARGFRAME ISTACK, 0, STACK
        ARGFRAME PSTACK, 0, STACK
        ARGFRAME XSTACK, 19, STACK
        ARGFRAME IOVERLAY, 0, STATIC
        ARGFRAME DOVERLAY, 0, STATIC
        MOV     A,#-0xa
        LCALL   ?BANKED_ENTER_XDATA
        CFI DPH0 load(1, XDATA, add(CFA_XSP16, literal(-1)))
        CFI DPL0 load(1, XDATA, add(CFA_XSP16, literal(-2)))
        CFI ?BRET_EXT load(1, XDATA, add(CFA_XSP16, literal(-3)))
        CFI ?RET_HIGH load(1, XDATA, add(CFA_XSP16, literal(-4)))
        CFI ?RET_LOW load(1, XDATA, add(CFA_XSP16, literal(-5)))
        CFI R7 load(1, XDATA, add(CFA_XSP16, literal(-6)))
        CFI V1 load(1, XDATA, add(CFA_XSP16, literal(-7)))
        CFI V0 load(1, XDATA, add(CFA_XSP16, literal(-8)))
        CFI VB load(1, XDATA, add(CFA_XSP16, literal(-9)))
        CFI R6 load(1, XDATA, add(CFA_XSP16, literal(-10)))
        CFI CFA_SP SP+0
        CFI CFA_XSP16 add(XSP16, 10)
        ; Saved register size: 10
        ; Auto size: 0
//  541   
//  542   /*AF在发送数据的时候是非常有针对性的，其第一个参数是发送目的地的地址之类的参数，在SampleApp_Init初始化的时候就定义了。
//  543   然后就是设备描述符（系统默认就好），在SampleApp_Init也定义了。第三个参数本例使用自定义的p2p名字，作用是让接收函数（协调器）
//  544   明确知道此类消息是那种类型（广播、组播、点播还是自定义的p2p）。
//  545   所以一定要明确，在数据发送的时候，已经进行了很多的规定，以免造成接收端任务的麻烦  
//  546   */
//  547   
//  548 
//  549 
//  550   
//  551   if ( AF_DataRequest( &SampleApp_p2p_DstAddr, //发送目的地址+端点地址+传送模式
//  552                       &SampleApp_epDesc,//源（答复或确认）终端的描述，即设备描述符
//  553                       SAMPLEAPP_ROUT_CNODE_CLUSTERID,//已经定义（系统或自定义）的簇的ID，用来表示发送的数据标识，让接收函数可以用来分类
//  554                       3,//发送数据的长度
//  555                       rssi_s,//发送数据缓冲区，即数据值
//  556                       &SampleApp_TransID,//任务ID，系统会分配？
//  557                       AF_DISCV_ROUTE,//有效位掩码的发送选项
//  558                       AF_DEFAULT_RADIUS ) == afStatus_SUCCESS )//传送跳数，通常使用默认值
        ; Setup parameters for call to function AF_DataRequest
        MOV     ?V0 + 0,#0x1e
        MOV     R0,#?V0 + 0
        LCALL   ?PUSH_XSTACK_I_ONE
        CFI CFA_XSP16 add(XSP16, 11)
        MOV     ?V0 + 0,#SampleApp_TransID & 0xff
        MOV     ?V0 + 1,#(SampleApp_TransID >> 8) & 0xff
        MOV     R0,#?V0 + 0
        LCALL   ?PUSH_XSTACK_I_TWO
        CFI CFA_XSP16 add(XSP16, 13)
        MOV     ?V0 + 0,#rssi_s & 0xff
        MOV     ?V0 + 1,#(rssi_s >> 8) & 0xff
        MOV     R0,#?V0 + 0
        LCALL   ?PUSH_XSTACK_I_TWO
        CFI CFA_XSP16 add(XSP16, 15)
        MOV     ?V0 + 0,#0x3
        MOV     ?V0 + 1,#0x0
        MOV     R0,#?V0 + 0
        LCALL   ?PUSH_XSTACK_I_TWO
        CFI CFA_XSP16 add(XSP16, 17)
        MOV     ?V0 + 0,#0x7
        MOV     R0,#?V0 + 0
        LCALL   ?PUSH_XSTACK_I_TWO
        CFI CFA_XSP16 add(XSP16, 19)
        MOV     R1,#0x20
        MOV     R4,#SampleApp_epDesc & 0xff
        MOV     R5,#(SampleApp_epDesc >> 8) & 0xff
        MOV     R2,#SampleApp_p2p_DstAddr & 0xff
        MOV     R3,#(SampleApp_p2p_DstAddr >> 8) & 0xff
        LCALL   ??AF_DataRequest?relay
        MOV     A,#0x9
        LCALL   ?DEALLOC_XSTACK8
        CFI CFA_XSP16 add(XSP16, 10)
//  559   {
//  560   }
//  561   else
//  562   {
//  563     // Error occurred in request to send.
//  564   }
//  565   
//  566   
//  567 
//  568 }
        LJMP    ?Subroutine0 & 0xFFFF
        CFI EndBlock cfiBlock17

        RSEG BANK_RELAYS:CODE:REORDER:NOROOT(0)
??SampleApp_Init?relay:
        LCALL   ?BDISPATCH
        DATA
        DC24    SampleApp_Init

        RSEG BANK_RELAYS:CODE:REORDER:NOROOT(0)
??SampleApp_ProcessEvent?relay:
        LCALL   ?BDISPATCH
        DATA
        DC24    SampleApp_ProcessEvent

        RSEG BANK_RELAYS:CODE:REORDER:NOROOT(0)
??SampleApp_HandleKeys?relay:
        LCALL   ?BDISPATCH
        DATA
        DC24    SampleApp_HandleKeys

        RSEG BANK_RELAYS:CODE:REORDER:NOROOT(0)
??SampleApp_MessageMSGCB?relay:
        LCALL   ?BDISPATCH
        DATA
        DC24    SampleApp_MessageMSGCB

        RSEG BANK_RELAYS:CODE:REORDER:NOROOT(0)
??UART_CallBackFunction?relay:
        LCALL   ?BDISPATCH
        DATA
        DC24    UART_CallBackFunction

        RSEG BANK_RELAYS:CODE:REORDER:NOROOT(0)
??SampleApp_P2P_SendMessage?relay:
        LCALL   ?BDISPATCH
        DATA
        DC24    SampleApp_P2P_SendMessage

        RSEG XDATA_ROM_C:CONST:REORDER:NOROOT(0)
        DATA8
`?<Constant "Group 1">`:
        DB "Group 1"

        RSEG XDATA_ROM_C:CONST:REORDER:NOROOT(0)
        DATA8
`?<Constant "SampleApp">`:
        DB "SampleApp"

        END
//  569 
//  570 //
// 
// 820 bytes in segment BANKED_CODE
//  36 bytes in segment BANK_RELAYS
//  34 bytes in segment XDATA_ROM_C
// 100 bytes in segment XDATA_Z
// 
// 856 bytes of CODE  memory
//  34 bytes of CONST memory
// 100 bytes of XDATA memory
//
//Errors: none
//Warnings: none
