###############################################################################
#                                                                             #
# IAR C/C++ Compiler V8.10.3.10338/W32 for 8051         30/Mar/2016  19:15:39 #
# Copyright 2004-2011 IAR Systems AB.                                         #
#                                                                             #
#    Core               =  plain                                              #
#    Code model         =  banked                                             #
#    Data model         =  large                                              #
#    Calling convention =  xdata reentrant                                    #
#    Constant location  =  data_rom                                           #
#    Dptr setup         =  1,16                                               #
#    Source file        =  E:\学习\Zigbee\Location\BLINDNODE\Projects\zstack\ #
#                          Samples\SampleApp\Source\SampleApp.c               #
#    Command line       =  -f E:\学习\Zigbee\Location\BLINDNODE\Projects\zsta #
#                          ck\Samples\SampleApp\CC2530DB\..\..\..\Tools\CC253 #
#                          0DB\f8wRouter.cfg (-DCPU32MHZ -DROOT=__near_func   #
#                          -DMAC_CFG_APP_PENDING_QUEUE=TRUE -DRTR_NWK         #
#                          -DBLINK_LEDS) -f E:\学习\Zigbee\Location\BLINDNODE #
#                          \Projects\zstack\Samples\SampleApp\CC2530DB\..\..\ #
#                          ..\Tools\CC2530DB\f8wConfig.cfg (-DSECURE=0        #
#                          -DZG_SECURE_DYNAMIC=0 -DREFLECTOR                  #
#                          -DDEFAULT_CHANLIST=0x00000800                      #
#                          -DZDAPP_CONFIG_PAN_ID=0xFFFF                       #
#                          -DNWK_START_DELAY=100 -DEXTENDED_JOINING_RANDOM_MA #
#                          SK=0x007F -DBEACON_REQUEST_DELAY=100               #
#                          -DBEACON_REQ_DELAY_MASK=0x00FF                     #
#                          -DROUTE_EXPIRY_TIME=30 -DAPSC_ACK_WAIT_DURATION_PO #
#                          LLED=3000 -DNWK_INDIRECT_MSG_TIMEOUT=7             #
#                          -DMAX_RREQ_ENTRIES=8 -DAPSC_MAX_FRAME_RETRIES=3    #
#                          -DNWK_MAX_DATA_RETRIES=2                           #
#                          -DMAX_POLL_FAILURE_RETRIES=2 -DMAX_BCAST=9         #
#                          -DAPS_MAX_GROUPS=16 -DMAX_RTG_ENTRIES=40           #
#                          -DNWK_MAX_BINDING_ENTRIES=4                        #
#                          -DMAX_BINDING_CLUSTER_IDS=4 "-DDEFAULT_KEY={0x01,  #
#                          0x03, 0x05, 0x07, 0x09, 0x0B, 0x0D, 0x0F, 0x00,    #
#                          0x02, 0x04, 0x06, 0x08, 0x0A, 0x0C, 0x0D}"         #
#                          -DMAC_MAX_FRAME_SIZE=116 "-DCONST=const __code"    #
#                          -DGENERIC=__generic -DRFD_RCVC_ALWAYS_ON=FALSE     #
#                          -DPOLL_RATE=1000 -DQUEUED_POLL_RATE=100            #
#                          -DRESPONSE_POLL_RATE=100) -DREJOIN_POLL_RATE=440   #
#                          E:\学习\Zigbee\Location\BLINDNODE\Projects\zstack\ #
#                          Samples\SampleApp\Source\SampleApp.c -D ZTOOL_P1   #
#                          -D MT_TASK -D MT_SYS_FUNC -D MT_ZDO_FUNC -D        #
#                          LCD_SUPPORTED=DEBUG -lC E:\学习\Zigbee\Location\BL #
#                          INDNODE\Projects\zstack\Samples\SampleApp\CC2530DB #
#                          \RouterEB\List\ -lA E:\学习\Zigbee\Location\BLINDN #
#                          ODE\Projects\zstack\Samples\SampleApp\CC2530DB\Rou #
#                          terEB\List\ --diag_suppress Pe001,Pa010 -o         #
#                          E:\学习\Zigbee\Location\BLINDNODE\Projects\zstack\ #
#                          Samples\SampleApp\CC2530DB\RouterEB\Obj\ -e        #
#                          --debug --core=plain --dptr=16,1                   #
#                          --data_model=large --code_model=banked             #
#                          --calling_convention=xdata_reentrant               #
#                          --place_constants=data_rom --nr_virtual_regs 16    #
#                          -I E:\学习\Zigbee\Location\BLINDNODE\Projects\zsta #
#                          ck\Samples\SampleApp\CC2530DB\ -I                  #
#                          E:\学习\Zigbee\Location\BLINDNODE\Projects\zstack\ #
#                          Samples\SampleApp\CC2530DB\..\SOURCE\ -I           #
#                          E:\学习\Zigbee\Location\BLINDNODE\Projects\zstack\ #
#                          Samples\SampleApp\CC2530DB\..\..\..\ZMAIN\TI2530DB #
#                          \ -I E:\学习\Zigbee\Location\BLINDNODE\Projects\zs #
#                          tack\Samples\SampleApp\CC2530DB\..\..\..\..\..\COM #
#                          PONENTS\MT\ -I E:\学习\Zigbee\Location\BLINDNODE\P #
#                          rojects\zstack\Samples\SampleApp\CC2530DB\..\..\.. #
#                          \..\..\COMPONENTS\HAL\INCLUDE\ -I                  #
#                          E:\学习\Zigbee\Location\BLINDNODE\Projects\zstack\ #
#                          Samples\SampleApp\CC2530DB\..\..\..\..\..\COMPONEN #
#                          TS\HAL\TARGET\CC2530EB\ -I                         #
#                          E:\学习\Zigbee\Location\BLINDNODE\Projects\zstack\ #
#                          Samples\SampleApp\CC2530DB\..\..\..\..\..\COMPONEN #
#                          TS\OSAL\MCU\CCSOC\ -I E:\学习\Zigbee\Location\BLIN #
#                          DNODE\Projects\zstack\Samples\SampleApp\CC2530DB\. #
#                          .\..\..\..\..\COMPONENTS\OSAL\INCLUDE\ -I          #
#                          E:\学习\Zigbee\Location\BLINDNODE\Projects\zstack\ #
#                          Samples\SampleApp\CC2530DB\..\..\..\..\..\COMPONEN #
#                          TS\STACK\AF\ -I E:\学习\Zigbee\Location\BLINDNODE\ #
#                          Projects\zstack\Samples\SampleApp\CC2530DB\..\..\. #
#                          .\..\..\COMPONENTS\STACK\NWK\ -I                   #
#                          E:\学习\Zigbee\Location\BLINDNODE\Projects\zstack\ #
#                          Samples\SampleApp\CC2530DB\..\..\..\..\..\COMPONEN #
#                          TS\STACK\SEC\ -I E:\学习\Zigbee\Location\BLINDNODE #
#                          \Projects\zstack\Samples\SampleApp\CC2530DB\..\..\ #
#                          ..\..\..\COMPONENTS\STACK\SAPI\ -I                 #
#                          E:\学习\Zigbee\Location\BLINDNODE\Projects\zstack\ #
#                          Samples\SampleApp\CC2530DB\..\..\..\..\..\COMPONEN #
#                          TS\STACK\SYS\ -I E:\学习\Zigbee\Location\BLINDNODE #
#                          \Projects\zstack\Samples\SampleApp\CC2530DB\..\..\ #
#                          ..\..\..\COMPONENTS\STACK\ZDO\ -I                  #
#                          E:\学习\Zigbee\Location\BLINDNODE\Projects\zstack\ #
#                          Samples\SampleApp\CC2530DB\..\..\..\..\..\COMPONEN #
#                          TS\ZMAC\F8W\ -I E:\学习\Zigbee\Location\BLINDNODE\ #
#                          Projects\zstack\Samples\SampleApp\CC2530DB\..\..\. #
#                          .\..\..\COMPONENTS\ZMAC\ -I                        #
#                          E:\学习\Zigbee\Location\BLINDNODE\Projects\zstack\ #
#                          Samples\SampleApp\CC2530DB\..\..\..\..\..\COMPONEN #
#                          TS\SERVICES\SADDR\ -I E:\学习\Zigbee\Location\BLIN #
#                          DNODE\Projects\zstack\Samples\SampleApp\CC2530DB\. #
#                          .\..\..\..\..\COMPONENTS\SERVICES\SDATA\ -I        #
#                          E:\学习\Zigbee\Location\BLINDNODE\Projects\zstack\ #
#                          Samples\SampleApp\CC2530DB\..\..\..\..\..\COMPONEN #
#                          TS\MAC\INCLUDE\ -I E:\学习\Zigbee\Location\BLINDNO #
#                          DE\Projects\zstack\Samples\SampleApp\CC2530DB\..\. #
#                          .\..\..\..\COMPONENTS\MAC\HIGH_LEVEL\ -I           #
#                          E:\学习\Zigbee\Location\BLINDNODE\Projects\zstack\ #
#                          Samples\SampleApp\CC2530DB\..\..\..\..\..\COMPONEN #
#                          TS\MAC\LOW_LEVEL\srf04\ -I                         #
#                          E:\学习\Zigbee\Location\BLINDNODE\Projects\zstack\ #
#                          Samples\SampleApp\CC2530DB\..\..\..\..\..\COMPONEN #
#                          TS\MAC\LOW_LEVEL\srf04\SINGLE_CHIP\ -Ohz           #
#                          --require_prototypes                               #
#    List file          =  E:\学习\Zigbee\Location\BLINDNODE\Projects\zstack\ #
#                          Samples\SampleApp\CC2530DB\RouterEB\List\SampleApp #
#                          .lst                                               #
#    Object file        =  E:\学习\Zigbee\Location\BLINDNODE\Projects\zstack\ #
#                          Samples\SampleApp\CC2530DB\RouterEB\Obj\SampleApp. #
#                          r51                                                #
#                                                                             #
#                                                                             #
###############################################################################

E:\学习\Zigbee\Location\BLINDNODE\Projects\zstack\Samples\SampleApp\Source\SampleApp.c
      1          /**************************************************************************************************
      2          Filename:       SampleApp.c
      3          Revised:        $Date: 2009-03-18 15:56:27 -0700 (Wed, 18 Mar 2009) $
      4          Revision:       $Revision: 19453 $
      5          
      6          Description:    Sample Application (no Profile).
      7          
      8          
      9          Copyright 2007 Texas Instruments Incorporated. All rights reserved.
     10          
     11          IMPORTANT: Your use of this Software is limited to those specific rights
     12          granted under the terms of a software license agreement between the user
     13          who downloaded the software, his/her employer (which must be your employer)
     14          and Texas Instruments Incorporated (the "License").  You may not use this
     15          Software unless you agree to abide by the terms of the License. The License
     16          limits your use, and you acknowledge, that the Software may not be modified,
     17          copied or distributed unless embedded on a Texas Instruments microcontroller
     18          or used solely and exclusively in conjunction with a Texas Instruments radio
     19          frequency transceiver, which is integrated into your product.  Other than for
     20          the foregoing purpose, you may not use, reproduce, copy, prepare derivative
     21          works of, modify, distribute, perform, display or sell this Software and/or
     22          its documentation for any purpose.
     23          
     24          YOU FURTHER ACKNOWLEDGE AND AGREE THAT THE SOFTWARE AND DOCUMENTATION ARE
     25          PROVIDED AS IS?WITHOUT WARRANTY OF ANY KIND, EITHER EXPRESS OR IMPLIED,
     26          INCLUDING WITHOUT LIMITATION, ANY WARRANTY OF MERCHANTABILITY, TITLE,
     27          NON-INFRINGEMENT AND FITNESS FOR A PARTICULAR PURPOSE. IN NO EVENT SHALL
     28          TEXAS INSTRUMENTS OR ITS LICENSORS BE LIABLE OR OBLIGATED UNDER CONTRACT,
     29          NEGLIGENCE, STRICT LIABILITY, CONTRIBUTION, BREACH OF WARRANTY, OR OTHER
     30          LEGAL EQUITABLE THEORY ANY DIRECT OR INDIRECT DAMAGES OR EXPENSES
     31          INCLUDING BUT NOT LIMITED TO ANY INCIDENTAL, SPECIAL, INDIRECT, PUNITIVE
     32          OR CONSEQUENTIAL DAMAGES, LOST PROFITS OR LOST DATA, COST OF PROCUREMENT
     33          OF SUBSTITUTE GOODS, TECHNOLOGY, SERVICES, OR ANY CLAIMS BY THIRD PARTIES
     34          (INCLUDING BUT NOT LIMITED TO ANY DEFENSE THEREOF), OR OTHER SIMILAR COSTS.
     35          
     36          Should you have any questions regarding your right to use this Software,
     37          contact Texas Instruments Incorporated at www.TI.com.
     38          **************************************************************************************************/
     39          
     40          /*********************************************************************
     41          This application isn't intended to do anything useful, it is
     42          intended to be a simple example of an application's structure.
     43          
     44          This application sends it's messages either as broadcast or
     45          broadcast filtered group messages.  The other (more normal)
     46          message addressing is unicast.  Most of the other sample
     47          applications are written to support the unicast message model.
     48          
     49          Key control:
     50          SW1:  Sends a flash command to all devices in Group 1.
     51          SW2:  Adds/Removes (toggles) this device in and out
     52          of Group 1.  This will enable and disable the
     53          reception of the flash command.
     54          *********************************************************************/
     55          
     56          /*********************************************************************
     57          * INCLUDES
     58          */
     59          #include "OSAL.h"
     60          #include "ZGlobals.h"
     61          #include "AF.h"
     62          #include "aps_groups.h"
     63          #include "ZDApp.h"
     64          
     65          #include "SampleApp.h"
     66          #include "SampleAppHw.h"
     67          
     68          #include "OnBoard.h"
     69          
     70          /* HAL */
     71          #include "hal_lcd.h"
     72          #include "hal_led.h"
     73          #include "hal_key.h"
     74          #include "MT_UART.h"
     75          #include "MT_APP.h"
     76          #include "MT.h"
     77          #include "ds18b20.h"
     78          
     79          
     80          /* user define*/
     81          #include "string.h"
     82          #include "stdlib.h"
     83          
     84          /*********************************************************************
     85          * MACROS
     86          */
     87          
     88          /*********************************************************************
     89          * CONSTANTS
     90          */
     91          
     92          /*********************************************************************
     93          * TYPEDEFS
     94          */
     95          
     96          /*********************************************************************
     97          * GLOBAL VARIABLES全局变量定义
     98          */
     99          //串口
    100          #define MY_DEFINI_UART_PORT 0 
    101          #ifndef RX_MAX_LENGTH
    102          #define RX_MAX_LENGTH 20
    103          #endif

   \                                 In  segment XDATA_Z, align 1, keep-with-next
    104          uint8 RX_BUFFER[RX_MAX_LENGTH];
   \                     RX_BUFFER:
   \   000000                DS 20
   \   000014                REQUIRE __INIT_XDATA_Z

   \                                 In  segment XDATA_Z, align 1, keep-with-next
    105          uint8 RX_Length;
   \                     RX_Length:
   \   000000                DS 1
   \   000001                REQUIRE __INIT_XDATA_Z
    106          void UART_CallBackFunction(uint8 port, uint8 event);//当串口有数据到来时，调用此函数
    107          
    108          
    109          
    110          
    111          // This list should be filled with Application specific Cluster IDs.

   \                                 In  segment XDATA_ROM_C, align 1
    112          const cId_t SampleApp_ClusterList[SAMPLEAPP_MAX_CLUSTERS] =
   \                     SampleApp_ClusterList:
   \   000000   0100         DW 1
   \   000002   0200         DW 2
    113          {
    114            SAMPLEAPP_PERIODIC_CLUSTERID,
    115            SAMPLEAPP_FLASH_CLUSTERID
    116          };
    117          

   \                                 In  segment XDATA_ROM_C, align 1
    118          const SimpleDescriptionFormat_t SampleApp_SimpleDesc =
   \                     SampleApp_SimpleDesc:
   \   000000   14           DB 20
   \   000001   080F         DW 3848
   \   000003   0100         DW 1
   \   000005   00           DB 0
   \   000006   02           DB 2
   \   000007   ....         DW SampleApp_ClusterList
   \   000009   02           DB 2
   \   00000A   ....         DW SampleApp_ClusterList
    119          {
    120            SAMPLEAPP_ENDPOINT,              //  int Endpoint;
    121            SAMPLEAPP_PROFID,                //  uint16 AppProfId[2];
    122            SAMPLEAPP_DEVICEID,              //  uint16 AppDeviceId[2];
    123            SAMPLEAPP_DEVICE_VERSION,        //  int   AppDevVer:4;
    124            SAMPLEAPP_FLAGS,                 //  int   AppFlags:4;
    125            SAMPLEAPP_MAX_CLUSTERS,          //  uint8  AppNumInClusters;
    126            (cId_t *)SampleApp_ClusterList,  //  uint8 *pAppInClusterList;
    127            SAMPLEAPP_MAX_CLUSTERS,          //  uint8  AppNumInClusters;
    128            (cId_t *)SampleApp_ClusterList   //  uint8 *pAppInClusterList;
    129          };
    130          
    131          // This is the Endpoint/Interface description.  It is defined here, but
    132          // filled-in in SampleApp_Init().  Another way to go would be to fill
    133          // in the structure here and make it a "const" (in code space).  The
    134          // way it's defined in this sample app it is define in RAM.

   \                                 In  segment XDATA_Z, align 1, keep-with-next
    135          endPointDesc_t SampleApp_epDesc;
   \                     SampleApp_epDesc:
   \   000000                DS 6
   \   000006                REQUIRE __INIT_XDATA_Z
    136          
    137          /*********************************************************************
    138          * EXTERNAL VARIABLES
    139          */
    140          
    141          /*********************************************************************
    142          * EXTERNAL FUNCTIONS
    143          */
    144          
    145          /*********************************************************************
    146          * LOCAL VARIABLES
    147          */

   \                                 In  segment XDATA_Z, align 1, keep-with-next
    148          uint8 SampleApp_TaskID;   // Task ID for internal task/event processing
   \                     SampleApp_TaskID:
   \   000000                DS 1
   \   000001                REQUIRE __INIT_XDATA_Z
    149          // This variable will be received when
    150          // SampleApp_Init() is called.

   \                                 In  segment XDATA_Z, align 1, keep-with-next
    151          devStates_t SampleApp_NwkState;
   \                     SampleApp_NwkState:
   \   000000                DS 1
   \   000001                REQUIRE __INIT_XDATA_Z
    152          

   \                                 In  segment XDATA_Z, align 1, keep-with-next
    153          uint8 SampleApp_TransID;  // This is the unique message ID (counter)
   \                     SampleApp_TransID:
   \   000000                DS 1
   \   000001                REQUIRE __INIT_XDATA_Z
    154          

   \                                 In  segment XDATA_Z, align 1, keep-with-next
    155          afAddrType_t SampleApp_Periodic_DstAddr;
   \                     SampleApp_Periodic_DstAddr:
   \   000000                DS 12
   \   00000C                REQUIRE __INIT_XDATA_Z

   \                                 In  segment XDATA_Z, align 1, keep-with-next
    156          afAddrType_t SampleApp_Flash_DstAddr;
   \                     SampleApp_Flash_DstAddr:
   \   000000                DS 12
   \   00000C                REQUIRE __INIT_XDATA_Z

   \                                 In  segment XDATA_Z, align 1, keep-with-next
    157          afAddrType_t SampleApp_p2p_DstAddr;//点播地址
   \                     SampleApp_p2p_DstAddr:
   \   000000                DS 12
   \   00000C                REQUIRE __INIT_XDATA_Z
    158          

   \                                 In  segment XDATA_Z, align 1, keep-with-next
    159          aps_Group_t SampleApp_Group;
   \                     SampleApp_Group:
   \   000000                DS 18
   \   000012                REQUIRE __INIT_XDATA_Z
    160          

   \                                 In  segment XDATA_Z, align 1, keep-with-next
    161          uint8 SampleAppPeriodicCounter = 0;
   \                     SampleAppPeriodicCounter:
   \   000000                DS 1
   \   000001                REQUIRE __INIT_XDATA_Z

   \                                 In  segment XDATA_Z, align 1, keep-with-next
    162          uint8 SampleAppFlashCounter = 0;
   \                     SampleAppFlashCounter:
   \   000000                DS 1
   \   000001                REQUIRE __INIT_XDATA_Z
    163          
    164          
    165          /*********************************************************************
    166          * LOCAL FUNCTIONS
    167          */
    168          void SampleApp_HandleKeys( uint8 shift, uint8 keys );
    169          void SampleApp_MessageMSGCB( afIncomingMSGPacket_t *pckt );
    170          void SampleApp_SendPeriodicMessage( void );
    171          
    172          
    173          
    174          
    175          /*********************************************************************
    176          * NETWORK LAYER CALLBACKS
    177          */
    178          
    179          /*********************************************************************
    180          * PUBLIC FUNCTIONS
    181          */
    182          
    183          /*********************************************************************
    184          * @fn      SampleApp_Init
    185          *
    186          * @brief   Initialization function for the Generic App Task.
    187          *          This is called during initialization and should contain
    188          *          any application specific initialization (ie. hardware
    189          *          initialization/setup, table initialization, power up
    190          *          notificaiton ... ).
    191          *
    192          * @param   task_id - the ID assigned by OSAL.  This ID should be
    193          *                    used to send messages and set timers.
    194          *
    195          * @return  none
    196          */

   \                                 In  segment BANKED_CODE, align 1, keep-with-next
    197          void SampleApp_Init( uint8 task_id )
   \                     SampleApp_Init:
    198          {
   \   000000   74F5         MOV     A,#-0xb
   \   000002   12....       LCALL   ?BANKED_ENTER_XDATA
   \   000005                ; Saved register size: 11
   \   000005                ; Auto size: 29
   \   000005   74E3         MOV     A,#-0x1d
   \   000007   12....       LCALL   ?ALLOC_XSTACK8
   \   00000A   E9           MOV     A,R1
    199            SampleApp_TaskID = task_id;
   \   00000B   90....       MOV     DPTR,#SampleApp_TaskID
   \   00000E   F0           MOVX    @DPTR,A
    200            SampleApp_NwkState = DEV_INIT;
   \   00000F   90....       MOV     DPTR,#SampleApp_NwkState
   \   000012   7401         MOV     A,#0x1
   \   000014   F0           MOVX    @DPTR,A
    201            SampleApp_TransID = 0;
   \   000015   90....       MOV     DPTR,#SampleApp_TransID
   \   000018   E4           CLR     A
   \   000019   F0           MOVX    @DPTR,A
    202            halUARTCfg_t uartConfig;//初始化串口使用
    203            
    204            // Device hardware initialization can be added here or in main() (Zmain.c).
    205            // If the hardware is application specific - add it here.
    206            // If the hardware is other parts of the device add it in main().
    207            
    208          #if defined ( BUILD_ALL_DEVICES )
    209            // The "Demo" target is setup to have BUILD_ALL_DEVICES and HOLD_AUTO_START
    210            // We are looking at a jumper (defined in SampleAppHw.c) to be jumpered
    211            // together - if they are - we will start up a coordinator. Otherwise,
    212            // the device will start as a router.
    213            if ( readCoordinatorJumper() )
    214              zgDeviceLogicalType = ZG_DEVICETYPE_COORDINATOR;
    215            else
    216              zgDeviceLogicalType = ZG_DEVICETYPE_ROUTER;
    217          #endif // BUILD_ALL_DEVICES
    218            
    219          #if defined ( HOLD_AUTO_START )
    220            // HOLD_AUTO_START is a compile option that will surpress ZDApp
    221            //  from starting the device and wait for the application to
    222            //  start the device.
    223            ZDOInitDevice(0);
    224          #endif
    225            
    226            // Setup for the periodic message's destination address
    227            // Broadcast to everyone，
    228            //在定位实验中，盲节点应该使用广播形式，让参考节点能够均能接收到数据
    229          
    230            SampleApp_Periodic_DstAddr.addrMode = (afAddrMode_t)AddrBroadcast;
   \   00001A   90....       MOV     DPTR,#SampleApp_Periodic_DstAddr + 8
   \   00001D   740F         MOV     A,#0xf
   \   00001F   F0           MOVX    @DPTR,A
    231            SampleApp_Periodic_DstAddr.endPoint = SAMPLEAPP_ENDPOINT;
   \   000020   A3           INC     DPTR
   \   000021   7414         MOV     A,#0x14
   \   000023   F0           MOVX    @DPTR,A
    232            SampleApp_Periodic_DstAddr.addr.shortAddr = 0xFFFF;
   \   000024   90....       MOV     DPTR,#SampleApp_Periodic_DstAddr
   \   000027   74FF         MOV     A,#-0x1
   \   000029   F0           MOVX    @DPTR,A
   \   00002A   A3           INC     DPTR
   \   00002B   F0           MOVX    @DPTR,A
    233          
    234            
    235          
    236            // Fill out the endpoint description.
    237            SampleApp_epDesc.endPoint = SAMPLEAPP_ENDPOINT;
   \   00002C   90....       MOV     DPTR,#SampleApp_epDesc
   \   00002F   7414         MOV     A,#0x14
   \   000031   F0           MOVX    @DPTR,A
    238            SampleApp_epDesc.task_id = &SampleApp_TaskID;
   \   000032   A3           INC     DPTR
   \   000033   74..         MOV     A,#SampleApp_TaskID & 0xff
   \   000035   F0           MOVX    @DPTR,A
   \   000036   A3           INC     DPTR
   \   000037   74..         MOV     A,#(SampleApp_TaskID >> 8) & 0xff
   \   000039   F0           MOVX    @DPTR,A
    239            SampleApp_epDesc.simpleDesc
    240              = (SimpleDescriptionFormat_t *)&SampleApp_SimpleDesc;
   \   00003A   A3           INC     DPTR
   \   00003B   74..         MOV     A,#SampleApp_SimpleDesc & 0xff
   \   00003D   F0           MOVX    @DPTR,A
   \   00003E   A3           INC     DPTR
   \   00003F   74..         MOV     A,#(SampleApp_SimpleDesc >> 8) & 0xff
   \   000041   F0           MOVX    @DPTR,A
    241            SampleApp_epDesc.latencyReq = noLatencyReqs;
   \   000042   A3           INC     DPTR
   \   000043   E4           CLR     A
   \   000044   F0           MOVX    @DPTR,A
    242            
    243            // Register the endpoint description with the AF
    244            afRegister( &SampleApp_epDesc );
   \   000045                ; Setup parameters for call to function afRegister
   \   000045   7A..         MOV     R2,#SampleApp_epDesc & 0xff
   \   000047   7B..         MOV     R3,#(SampleApp_epDesc >> 8) & 0xff
   \   000049   12....       LCALL   ??afRegister?relay
    245            
    246            // Register for all key events - This app will handle all key events
    247            RegisterForKeys( SampleApp_TaskID );
   \   00004C                ; Setup parameters for call to function RegisterForKeys
   \   00004C   90....       MOV     DPTR,#SampleApp_TaskID
   \   00004F   E0           MOVX    A,@DPTR
   \   000050   F9           MOV     R1,A
   \   000051   12....       LCALL   ??RegisterForKeys?relay
    248            
    249            // By default, all devices start out in Group 1
    250            //默认情况下，所有设备都是组1，可以对此进行设置，从而时不同的设备进入不同的组
    251            SampleApp_Group.ID = 0x0001;
   \   000054   90....       MOV     DPTR,#SampleApp_Group
   \   000057   7401         MOV     A,#0x1
   \   000059   F0           MOVX    @DPTR,A
   \   00005A   A3           INC     DPTR
   \   00005B   E4           CLR     A
   \   00005C   F0           MOVX    @DPTR,A
    252            osal_memcpy( SampleApp_Group.name, "Group 1", 7  );
   \   00005D                ; Setup parameters for call to function osal_memcpy
   \   00005D   75....       MOV     ?V0 + 0,#`?<Constant "Group 1">` & 0xff
   \   000060   75....       MOV     ?V0 + 1,#(`?<Constant "Group 1">` >> 8) & 0xff
   \   000063   F5..         MOV     ?V0 + 2,A
   \   000065   78..         MOV     R0,#?V0 + 0
   \   000067   12....       LCALL   ?PUSH_XSTACK_I_THREE
   \   00006A   7C07         MOV     R4,#0x7
   \   00006C   7D00         MOV     R5,#0x0
   \   00006E   7A..         MOV     R2,#(SampleApp_Group + 2) & 0xff
   \   000070   7B..         MOV     R3,#((SampleApp_Group + 2) >> 8) & 0xff
   \   000072   12....       LCALL   ??osal_memcpy?relay
   \   000075   7403         MOV     A,#0x3
   \   000077   12....       LCALL   ?DEALLOC_XSTACK8
    253            aps_AddGroup( SAMPLEAPP_ENDPOINT, &SampleApp_Group );
   \   00007A                ; Setup parameters for call to function aps_AddGroup
   \   00007A   7A..         MOV     R2,#SampleApp_Group & 0xff
   \   00007C   7B..         MOV     R3,#(SampleApp_Group >> 8) & 0xff
   \   00007E   7914         MOV     R1,#0x14
   \   000080   12....       LCALL   ??aps_AddGroup?relay
    254            
    255            
    256            //串口初始化
    257            uartConfig.configured       = TRUE;
   \   000083   85..82       MOV     DPL,?XSP + 0
   \   000086   85..83       MOV     DPH,?XSP + 1
   \   000089   7401         MOV     A,#0x1
   \   00008B   F0           MOVX    @DPTR,A
    258            uartConfig.baudRate         = HAL_UART_BR_9600;
   \   00008C   12....       LCALL   ?XSTACK_DISP0_8
   \   00008F   E4           CLR     A
   \   000090   F0           MOVX    @DPTR,A
    259            uartConfig.flowControl      = FALSE;
   \   000091   7402         MOV     A,#0x2
   \   000093   12....       LCALL   ?XSTACK_DISP0_8
   \   000096   E4           CLR     A
   \   000097   F0           MOVX    @DPTR,A
    260            uartConfig.flowControlThreshold = MT_UART_THRESHOLD;//默认使用流控制
   \   000098   7403         MOV     A,#0x3
   \   00009A   12....       LCALL   ?XSTACK_DISP0_8
   \   00009D   7440         MOV     A,#0x40
   \   00009F   F0           MOVX    @DPTR,A
   \   0000A0   A3           INC     DPTR
   \   0000A1   E4           CLR     A
   \   0000A2   F0           MOVX    @DPTR,A
    261            uartConfig.rx.maxBufSize     = 200;
   \   0000A3   740A         MOV     A,#0xa
   \   0000A5   12....       LCALL   ?XSTACK_DISP0_8
   \   0000A8   74C8         MOV     A,#-0x38
   \   0000AA   F0           MOVX    @DPTR,A
   \   0000AB   A3           INC     DPTR
   \   0000AC   E4           CLR     A
   \   0000AD   F0           MOVX    @DPTR,A
    262            uartConfig.tx.maxBufSize     =200;
   \   0000AE   7412         MOV     A,#0x12
   \   0000B0   12....       LCALL   ?XSTACK_DISP0_8
   \   0000B3   74C8         MOV     A,#-0x38
   \   0000B5   F0           MOVX    @DPTR,A
   \   0000B6   A3           INC     DPTR
   \   0000B7   E4           CLR     A
   \   0000B8   F0           MOVX    @DPTR,A
    263            uartConfig.idleTimeout       = MT_UART_IDLE_TIMEOUT;
   \   0000B9   7405         MOV     A,#0x5
   \   0000BB   12....       LCALL   ?XSTACK_DISP0_8
   \   0000BE   7406         MOV     A,#0x6
   \   0000C0   F0           MOVX    @DPTR,A
    264            uartConfig.intEnable          =TRUE;
   \   0000C1   7416         MOV     A,#0x16
   \   0000C3   12....       LCALL   ?XSTACK_DISP0_8
   \   0000C6   7401         MOV     A,#0x1
   \   0000C8   F0           MOVX    @DPTR,A
    265            uartConfig.callBackFunc       =UART_CallBackFunction;
   \   0000C9   741B         MOV     A,#0x1b
   \   0000CB   12....       LCALL   ?XSTACK_DISP0_8
   \   0000CE   74..         MOV     A,#??UART_CallBackFunction?relay & 0xff
   \   0000D0   F0           MOVX    @DPTR,A
   \   0000D1   A3           INC     DPTR
   \   0000D2   74..         MOV     A,#(??UART_CallBackFunction?relay >> 8) & 0xff
   \   0000D4   F0           MOVX    @DPTR,A
    266            HalUARTOpen(MY_DEFINI_UART_PORT,&uartConfig);//使用自定义的串口初始化变量来开启串口通讯
   \   0000D5                ; Setup parameters for call to function HalUARTOpen
   \   0000D5   85..82       MOV     DPL,?XSP + 0
   \   0000D8   85..83       MOV     DPH,?XSP + 1
   \   0000DB   AA82         MOV     R2,DPL
   \   0000DD   AB83         MOV     R3,DPH
   \   0000DF   7900         MOV     R1,#0x0
   \   0000E1   12....       LCALL   ??HalUARTOpen?relay
    267            
    268            
    269            //此处设置的目的是，只有路由器或者终端定时触发USER_EVT用户自定义事件，从而调用相应函数，
    270            //协调器只负责接收数据，所以不需要
    271          
    272            osal_start_timerEx(SampleApp_TaskID,USER_EVT,1000);
   \   0000E4                ; Setup parameters for call to function osal_start_timerEx
   \   0000E4   7CE8         MOV     R4,#-0x18
   \   0000E6   7D03         MOV     R5,#0x3
   \   0000E8   7A08         MOV     R2,#0x8
   \   0000EA   12....       LCALL   ??Subroutine2_0 & 0xFFFF
    273          
    274            
    275            
    276            
    277            
    278          #if defined ( LCD_SUPPORTED )
    279            HalLcdWriteString( "SampleApp", HAL_LCD_LINE_1 );
   \                     ??CrossCallReturnLabel_2:
   \   0000ED                ; Setup parameters for call to function HalLcdWriteString
   \   0000ED   7901         MOV     R1,#0x1
   \   0000EF   7A..         MOV     R2,#`?<Constant "SampleApp">` & 0xff
   \   0000F1   7B..         MOV     R3,#(`?<Constant "SampleApp">` >> 8) & 0xff
   \   0000F3   12....       LCALL   ??HalLcdWriteString?relay
    280          #endif
    281          }
   \   0000F6   741D         MOV     A,#0x1d
   \   0000F8   12....       LCALL   ?DEALLOC_XSTACK8
   \   0000FB   7F03         MOV     R7,#0x3
   \   0000FD   02....       LJMP    ?BANKED_LEAVE_XDATA

   \                                 In  segment BANKED_CODE, align 1, keep-with-next
   \                     ??Subroutine2_0:
   \   000000   7B00         MOV     R3,#0x0
   \   000002   90....       MOV     DPTR,#SampleApp_TaskID
   \   000005   E0           MOVX    A,@DPTR
   \   000006   F9           MOV     R1,A
   \   000007   12....       LCALL   ??osal_start_timerEx?relay
   \   00000A   22           RET
    282          
    283          /*********************************************************************
    284          * @fn      SampleApp_ProcessEvent
    285          *
    286          * @brief   Generic Application Task event processor.  This function
    287          *          is called to process all events for the task.  Events
    288          *          include timers, messages and any other user defined events.
    289          *
    290          * @param   task_id  - The OSAL assigned task ID.
    291          * @param   events - events to process.  This is a bit map and can
    292          *                   contain more than one event.
    293          *
    294          * @return  none
    295          */

   \                                 In  segment BANKED_CODE, align 1, keep-with-next
    296          uint16 SampleApp_ProcessEvent( uint8 task_id, uint16 events )
   \                     SampleApp_ProcessEvent:
    297          {
   \   000000   74F4         MOV     A,#-0xc
   \   000002   12....       LCALL   ?BANKED_ENTER_XDATA
   \   000005                ; Saved register size: 12
   \   000005                ; Auto size: 0
   \   000005   EA           MOV     A,R2
   \   000006   FE           MOV     R6,A
   \   000007   EB           MOV     A,R3
   \   000008   FF           MOV     R7,A
    298            afIncomingMSGPacket_t *MSGpkt;
    299            (void)task_id;  // Intentionally unreferenced parameter
    300            
    301            if ( events & SYS_EVENT_MSG )
   \   000009   5480         ANL     A,#0x80
   \   00000B   605E         JZ      ??SampleApp_ProcessEvent_0
    302            {
    303              MSGpkt = (afIncomingMSGPacket_t *)osal_msg_receive( SampleApp_TaskID );
   \   00000D                ; Setup parameters for call to function osal_msg_receive
   \   00000D   801D         SJMP    ??SampleApp_ProcessEvent_1
    304              while ( MSGpkt )
    305              {
    306                switch ( MSGpkt->hdr.event )
    307                {
    308                  // Received when a key is pressed
    309                case KEY_CHANGE:
    310                  SampleApp_HandleKeys( ((keyChange_t *)MSGpkt)->state, ((keyChange_t *)MSGpkt)->keys );
    311                  break;
    312                  
    313                  // Received when a messages is received (OTA) for this endpoint
    314                case AF_INCOMING_MSG_CMD:
    315                  SampleApp_MessageMSGCB( MSGpkt );
    316                  break;
    317                  
    318                  // Received whenever the device changes state in the network
    319                case ZDO_STATE_CHANGE:
    320                  SampleApp_NwkState = (devStates_t)(MSGpkt->hdr.status);
   \                     ??SampleApp_ProcessEvent_2:
   \   00000F   A3           INC     DPTR
   \   000010   E0           MOVX    A,@DPTR
   \   000011   90....       MOV     DPTR,#SampleApp_NwkState
   \   000014   F0           MOVX    @DPTR,A
    321                  if (// (SampleApp_NwkState == DEV_ZB_COORD)|| //协调器只负责接收数据，不发送数据
    322                      (SampleApp_NwkState == DEV_ROUTER)
    323                        || (SampleApp_NwkState == DEV_END_DEVICE) )
   \   000015   6407         XRL     A,#0x7
   \   000017   6005         JZ      ??SampleApp_ProcessEvent_3
   \   000019   E0           MOVX    A,@DPTR
   \   00001A   6406         XRL     A,#0x6
   \   00001C   7007         JNZ     ??CrossCallReturnLabel_0
    324                  {
    325                    // Start sending the periodic message in a regular interval.
    326                    osal_start_timerEx( SampleApp_TaskID,
    327                                       SAMPLEAPP_SEND_PERIODIC_MSG_EVT,
    328                                       SAMPLEAPP_SEND_PERIODIC_MSG_TIMEOUT );
   \                     ??SampleApp_ProcessEvent_3:
   \   00001E                ; Setup parameters for call to function osal_start_timerEx
   \   00001E   7CE8         MOV     R4,#-0x18
   \   000020   7D03         MOV     R5,#0x3
   \   000022   12....       LCALL   ?Subroutine1 & 0xFFFF
    329                  }
    330                  else
    331                  {
    332                    // Device is no longer in the network
    333                  }
    334                  break;
    335                  
    336                default:
    337                  break;
    338                }
    339                
    340                // Release the memory
    341                osal_msg_deallocate( (uint8 *)MSGpkt );
   \                     ??CrossCallReturnLabel_0:
   \   000025                ; Setup parameters for call to function osal_msg_deallocate
   \   000025   AA..         MOV     R2,?V0 + 0
   \   000027   AB..         MOV     R3,?V0 + 1
   \   000029   12....       LCALL   ??osal_msg_deallocate?relay
    342                
    343                // Next - if one is available
    344                MSGpkt = (afIncomingMSGPacket_t *)osal_msg_receive( SampleApp_TaskID );
   \   00002C                ; Setup parameters for call to function osal_msg_receive
   \                     ??SampleApp_ProcessEvent_1:
   \   00002C   90....       MOV     DPTR,#SampleApp_TaskID
   \   00002F   E0           MOVX    A,@DPTR
   \   000030   F9           MOV     R1,A
   \   000031   12....       LCALL   ??osal_msg_receive?relay
   \   000034   8A..         MOV     ?V0 + 0,R2
   \   000036   8B..         MOV     ?V0 + 1,R3
   \   000038   E5..         MOV     A,?V0 + 0
   \   00003A   45..         ORL     A,?V0 + 1
   \   00003C   6025         JZ      ??SampleApp_ProcessEvent_4
   \   00003E   85..82       MOV     DPL,?V0 + 0
   \   000041   85..83       MOV     DPH,?V0 + 1
   \   000044   E0           MOVX    A,@DPTR
   \   000045   2440         ADD     A,#0x40
   \   000047   6006         JZ      ??SampleApp_ProcessEvent_5
   \   000049   24EF         ADD     A,#-0x11
   \   00004B   60C2         JZ      ??SampleApp_ProcessEvent_2
   \   00004D   80D6         SJMP    ??CrossCallReturnLabel_0
   \                     ??SampleApp_ProcessEvent_5:
   \   00004F                ; Setup parameters for call to function SampleApp_HandleKeys
   \   00004F   A3           INC     DPTR
   \   000050   A3           INC     DPTR
   \   000051   A3           INC     DPTR
   \   000052   E0           MOVX    A,@DPTR
   \   000053   FA           MOV     R2,A
   \   000054   85..82       MOV     DPL,?V0 + 0
   \   000057   85..83       MOV     DPH,?V0 + 1
   \   00005A   A3           INC     DPTR
   \   00005B   A3           INC     DPTR
   \   00005C   E0           MOVX    A,@DPTR
   \   00005D   F9           MOV     R1,A
   \   00005E   12....       LCALL   ??SampleApp_HandleKeys?relay
   \   000061   80C2         SJMP    ??CrossCallReturnLabel_0
    345              }
    346              
    347              // return unprocessed events
    348              return (events ^ SYS_EVENT_MSG);
   \                     ??SampleApp_ProcessEvent_4:
   \   000063   EE           MOV     A,R6
   \   000064   FA           MOV     R2,A
   \   000065   EF           MOV     A,R7
   \   000066   6480         XRL     A,#0x80
   \                     ??SampleApp_ProcessEvent_6:
   \   000068   FB           MOV     R3,A
   \   000069   8021         SJMP    ??SampleApp_ProcessEvent_7
    349            }
    350            
    351            // Send a message out - This event is generated by a timer
    352            //  (setup in SampleApp_Init()).
    353            if ( events & SAMPLEAPP_SEND_PERIODIC_MSG_EVT )//盲节点发送数据
   \                     ??SampleApp_ProcessEvent_0:
   \   00006B   EE           MOV     A,R6
   \   00006C   A2E0         MOV     C,0xE0 /* A   */.0
   \   00006E   5018         JNC     ??SampleApp_ProcessEvent_8
    354            {
    355              // Send the periodic message
    356              SampleApp_SendPeriodicMessage();
   \   000070                ; Setup parameters for call to function SampleApp_SendPeriodicMessage
   \   000070   12....       LCALL   ??SampleApp_SendPeriodicMessage?relay
    357              
    358              // Setup to send message again in normal period (+ a little jitter)
    359              osal_start_timerEx( SampleApp_TaskID, SAMPLEAPP_SEND_PERIODIC_MSG_EVT,
    360                                 (SAMPLEAPP_SEND_PERIODIC_MSG_TIMEOUT + (osal_rand() & 0x00FF)) );
   \   000073                ; Setup parameters for call to function osal_rand
   \   000073   12....       LCALL   ??osal_rand?relay
   \   000076                ; Setup parameters for call to function osal_start_timerEx
   \   000076   EA           MOV     A,R2
   \   000077   24E8         ADD     A,#-0x18
   \   000079   FC           MOV     R4,A
   \   00007A   E4           CLR     A
   \   00007B   3403         ADDC    A,#0x3
   \   00007D   FD           MOV     R5,A
   \   00007E   12....       LCALL   ?Subroutine1 & 0xFFFF
    361              
    362              // return unprocessed events
    363              return (events ^ SAMPLEAPP_SEND_PERIODIC_MSG_EVT);
   \                     ??CrossCallReturnLabel_1:
   \   000081   EE           MOV     A,R6
   \   000082   6401         XRL     A,#0x1
   \   000084   FA           MOV     R2,A
   \   000085   EF           MOV     A,R7
   \   000086   80E0         SJMP    ??SampleApp_ProcessEvent_6
    364            }
    365            
    366           
    367            // Discard unknown events
    368            return 0;
   \                     ??SampleApp_ProcessEvent_8:
   \   000088   7A00         MOV     R2,#0x0
   \   00008A   7B00         MOV     R3,#0x0
   \                     ??SampleApp_ProcessEvent_7:
   \   00008C   7F04         MOV     R7,#0x4
   \   00008E   02....       LJMP    ?BANKED_LEAVE_XDATA
    369          }

   \                                 In  segment BANKED_CODE, align 1, keep-with-next
   \                     ?Subroutine1:
   \   000000   7A01         MOV     R2,#0x1
   \   000002                REQUIRE ??Subroutine2_0
   \   000002                ; // Fall through to label ??Subroutine2_0
    370          
    371          /*********************************************************************
    372          * Event Generation Functions
    373          */
    374          /*********************************************************************
    375          * @fn      SampleApp_HandleKeys
    376          *
    377          * @brief   Handles all key events for this device.
    378          *
    379          * @param   shift - true if in shift/alt.
    380          * @param   keys - bit field for key events. Valid entries:
    381          *                 HAL_KEY_SW_2
    382          *                 HAL_KEY_SW_1
    383          *
    384          * @return  none
    385          */

   \                                 In  segment BANKED_CODE, align 1, keep-with-next
    386          void SampleApp_HandleKeys( uint8 shift, uint8 keys )
   \                     SampleApp_HandleKeys:
    387          {
   \   000000   74F6         MOV     A,#-0xa
   \   000002   12....       LCALL   ?BANKED_ENTER_XDATA
   \   000005                ; Saved register size: 10
   \   000005                ; Auto size: 0
   \   000005   EA           MOV     A,R2
    388            (void)shift;  // Intentionally unreferenced parameter
    389            
    390            if ( keys & HAL_KEY_SW_1 )
    391            {
    392              /* This key sends the Flash Command is sent to Group 1.
    393              * This device will not receive the Flash Command from this
    394              * device (even if it belongs to group 1).
    395              */
    396              //SampleApp_SendFlashMessage( SAMPLEAPP_FLASH_DURATION );
    397            }
    398            
    399            if ( keys & HAL_KEY_SW_2 )
   \   000006   A2E1         MOV     C,0xE0 /* A   */.1
   \   000008   5024         JNC     ??SampleApp_HandleKeys_0
    400            {
    401              /* The Flashr Command is sent to Group 1.
    402              * This key toggles this device in and out of group 1.
    403              * If this device doesn't belong to group 1, this application
    404              * will not receive the Flash command sent to group 1.
    405              */
    406              aps_Group_t *grp;
    407              grp = aps_FindGroup( SAMPLEAPP_ENDPOINT, SAMPLEAPP_FLASH_GROUP );
    408              if ( grp )
   \   00000A                ; Setup parameters for call to function aps_FindGroup
   \   00000A   7A01         MOV     R2,#0x1
   \   00000C   7B00         MOV     R3,#0x0
   \   00000E   7914         MOV     R1,#0x14
   \   000010   12....       LCALL   ??aps_FindGroup?relay
   \   000013   8B..         MOV     ?V0 + 1,R3
   \   000015   EA           MOV     A,R2
   \   000016   45..         ORL     A,?V0 + 1
   \   000018   600B         JZ      ??SampleApp_HandleKeys_1
    409              {
    410                // Remove from the group
    411                aps_RemoveGroup( SAMPLEAPP_ENDPOINT, SAMPLEAPP_FLASH_GROUP );
   \   00001A                ; Setup parameters for call to function aps_RemoveGroup
   \   00001A   7A01         MOV     R2,#0x1
   \   00001C   7B00         MOV     R3,#0x0
   \   00001E   7914         MOV     R1,#0x14
   \   000020   12....       LCALL   ??aps_RemoveGroup?relay
   \   000023   8009         SJMP    ??SampleApp_HandleKeys_0
    412              }
    413              else
    414              {
    415                // Add to the flash group
    416                aps_AddGroup( SAMPLEAPP_ENDPOINT, &SampleApp_Group );
   \                     ??SampleApp_HandleKeys_1:
   \   000025                ; Setup parameters for call to function aps_AddGroup
   \   000025   7A..         MOV     R2,#SampleApp_Group & 0xff
   \   000027   7B..         MOV     R3,#(SampleApp_Group >> 8) & 0xff
   \   000029   7914         MOV     R1,#0x14
   \   00002B   12....       LCALL   ??aps_AddGroup?relay
    417              }
    418            }
    419          }
   \                     ??SampleApp_HandleKeys_0:
   \   00002E                REQUIRE ?Subroutine0
   \   00002E                ; // Fall through to label ?Subroutine0

   \                                 In  segment BANKED_CODE, align 1, keep-with-next
   \                     ?Subroutine0:
   \   000000   7F02         MOV     R7,#0x2
   \   000002   02....       LJMP    ?BANKED_LEAVE_XDATA
    420          
    421          /*********************************************************************
    422          * LOCAL FUNCTIONS
    423          */
    424          
    425          /*********************************************************************
    426          * @fn      SampleApp_MessageMSGCB
    427          *
    428          * @brief   Data message processor callback.  This function processes
    429          *          any incoming data - probably from other devices.  So, based
    430          *          on cluster ID, perform the intended action.
    431          *
    432          * @param   none
    433          *
    434          * @return  none
    435          */

   \                                 In  segment BANKED_CODE, align 1, keep-with-next
    436          void SampleApp_MessageMSGCB( afIncomingMSGPacket_t *pkt )
   \                     SampleApp_MessageMSGCB:
    437          {
   \   000000                ; Saved register size: 0
   \   000000                ; Auto size: 0
    438           // SampleApp_SendPeriodicMessage();
    439          }
   \   000000   02....       LJMP    ?BRET
    440          
    441          /*********************************************************************
    442          * @fn      SampleApp_SendPeriodicMessage
    443          *
    444          * @brief   Send the periodic message.
    445          *
    446          * @param   none
    447          *
    448          * @return  none
    449          */

   \                                 In  segment BANKED_CODE, align 1, keep-with-next
    450          void SampleApp_SendPeriodicMessage( void )//盲节点发送数据
   \                     SampleApp_SendPeriodicMessage:
    451          {
   \   000000   74F6         MOV     A,#-0xa
   \   000002   12....       LCALL   ?BANKED_ENTER_XDATA
   \   000005                ; Saved register size: 10
   \   000005                ; Auto size: 11
   \   000005   74F5         MOV     A,#-0xb
   \   000007   12....       LCALL   ?ALLOC_XSTACK8
    452            byte state[]="Blind node";
   \   00000A   85..82       MOV     DPL,?XSP + 0
   \   00000D   85..83       MOV     DPH,?XSP + 1
   \   000010   AC82         MOV     R4,DPL
   \   000012   AD83         MOV     R5,DPH
   \   000014   7583..       MOV     DPH,#(`?<Constant "Blind node">` >> 8) & 0xff
   \   000017   7582..       MOV     DPL,#`?<Constant "Blind node">` & 0xff
   \   00001A   740B         MOV     A,#0xb
   \   00001C   12....       LCALL   ?MOVE_LONG8_XDATA_XDATA
    453            if ( AF_DataRequest( &SampleApp_Periodic_DstAddr, &SampleApp_epDesc,
    454                                SAMPLEAPP_BLIND_CLUSTERID,
    455                                sizeof("Blind node"),
    456                                state,
    457                                &SampleApp_TransID,
    458                                AF_DISCV_ROUTE,
    459                                AF_DEFAULT_RADIUS ) == afStatus_SUCCESS )
   \   00001F                ; Setup parameters for call to function AF_DataRequest
   \   00001F   75..1E       MOV     ?V0 + 0,#0x1e
   \   000022   78..         MOV     R0,#?V0 + 0
   \   000024   12....       LCALL   ?PUSH_XSTACK_I_ONE
   \   000027   75....       MOV     ?V0 + 0,#SampleApp_TransID & 0xff
   \   00002A   75....       MOV     ?V0 + 1,#(SampleApp_TransID >> 8) & 0xff
   \   00002D   78..         MOV     R0,#?V0 + 0
   \   00002F   12....       LCALL   ?PUSH_XSTACK_I_TWO
   \   000032   7403         MOV     A,#0x3
   \   000034   12....       LCALL   ?XSTACK_DISP0_8
   \   000037   8582..       MOV     ?V0 + 0,DPL
   \   00003A   8583..       MOV     ?V0 + 1,DPH
   \   00003D   78..         MOV     R0,#?V0 + 0
   \   00003F   12....       LCALL   ?PUSH_XSTACK_I_TWO
   \   000042   75..0B       MOV     ?V0 + 0,#0xb
   \   000045   75..00       MOV     ?V0 + 1,#0x0
   \   000048   78..         MOV     R0,#?V0 + 0
   \   00004A   12....       LCALL   ?PUSH_XSTACK_I_TWO
   \   00004D   75..08       MOV     ?V0 + 0,#0x8
   \   000050   78..         MOV     R0,#?V0 + 0
   \   000052   12....       LCALL   ?PUSH_XSTACK_I_TWO
   \   000055   7920         MOV     R1,#0x20
   \   000057   7C..         MOV     R4,#SampleApp_epDesc & 0xff
   \   000059   7D..         MOV     R5,#(SampleApp_epDesc >> 8) & 0xff
   \   00005B   7A..         MOV     R2,#SampleApp_Periodic_DstAddr & 0xff
   \   00005D   7B..         MOV     R3,#(SampleApp_Periodic_DstAddr >> 8) & 0xff
   \   00005F   12....       LCALL   ??AF_DataRequest?relay
   \   000062   7409         MOV     A,#0x9
   \   000064   12....       LCALL   ?DEALLOC_XSTACK8
    460            {
    461            }
    462            else
    463            {
    464              // Error occurred in request to send.
    465            }
    466          }
   \   000067   740B         MOV     A,#0xb
   \   000069   12....       LCALL   ?DEALLOC_XSTACK8
   \   00006C   80..         SJMP    ?Subroutine0
    467          
    468          /*********************************************************************
    469          * @fn      SampleApp_SendFlashMessage
    470          *
    471          * @brief   Send the flash message to group 1.
    472          *
    473          * @param   flashTime - in milliseconds
    474          *
    475          * @return  none
    476          */
    477          
    478          
    479          /*********************************************************************
    480          *********************************************************************/

   \                                 In  segment BANKED_CODE, align 1, keep-with-next
    481          static void UART_CallBackFunction(uint8 port, uint8 event)
   \                     UART_CallBackFunction:
    482          {
   \   000000   C082         PUSH    DPL
   \   000002   C083         PUSH    DPH
   \   000004                ; Saved register size: 2
   \   000004                ; Auto size: 0
    483            uint8 RX_Flag = 0;
    484            RX_Length = 0;//接收字符串长度
   \   000004   90....       MOV     DPTR,#RX_Length
   \   000007   E4           CLR     A
   \   000008   F0           MOVX    @DPTR,A
    485            RX_Flag = RX_Length = Hal_UART_RxBufLen(MY_DEFINI_UART_PORT);// 接收到的字符串长度
   \   000009                ; Setup parameters for call to function Hal_UART_RxBufLen
   \   000009   F9           MOV     R1,A
   \   00000A   12....       LCALL   ??Hal_UART_RxBufLen?relay
   \   00000D   EA           MOV     A,R2
   \   00000E   90....       MOV     DPTR,#RX_Length
   \   000011   F0           MOVX    @DPTR,A
    486            
    487            if(RX_Flag != 0)// 有数据存在
   \   000012   601C         JZ      ??UART_CallBackFunction_0
    488            {
    489              //读取串口数据
    490              HalUARTRead(MY_DEFINI_UART_PORT,RX_BUFFER,RX_Length);
   \   000014                ; Setup parameters for call to function HalUARTRead
   \   000014   FC           MOV     R4,A
   \   000015   7D00         MOV     R5,#0x0
   \   000017   7A..         MOV     R2,#RX_BUFFER & 0xff
   \   000019   7B..         MOV     R3,#(RX_BUFFER >> 8) & 0xff
   \   00001B   7900         MOV     R1,#0x0
   \   00001D   12....       LCALL   ??HalUARTRead?relay
    491              {
    492                //将数据发回给电脑，使用hal_uart.h的接口函数
    493                HalUARTWrite(MY_DEFINI_UART_PORT,RX_BUFFER,RX_Length);
   \   000020                ; Setup parameters for call to function HalUARTWrite
   \   000020   90....       MOV     DPTR,#RX_Length
   \   000023   E0           MOVX    A,@DPTR
   \   000024   FC           MOV     R4,A
   \   000025   7D00         MOV     R5,#0x0
   \   000027   7A..         MOV     R2,#RX_BUFFER & 0xff
   \   000029   7B..         MOV     R3,#(RX_BUFFER >> 8) & 0xff
   \   00002B   7900         MOV     R1,#0x0
   \   00002D   12....       LCALL   ??HalUARTWrite?relay
    494              }
    495            }
    496            
    497          }
   \                     ??UART_CallBackFunction_0:
   \   000030   D083         POP     DPH
   \   000032   D082         POP     DPL
   \   000034   02....       LJMP    ?BRET

   \                                 In  segment BANK_RELAYS, align 1
   \                     ??SampleApp_Init?relay:
   \   000000   12....       LCALL   ?BDISPATCH
   \   000003   ......       DC24    SampleApp_Init

   \                                 In  segment BANK_RELAYS, align 1
   \                     ??SampleApp_ProcessEvent?relay:
   \   000000   12....       LCALL   ?BDISPATCH
   \   000003   ......       DC24    SampleApp_ProcessEvent

   \                                 In  segment BANK_RELAYS, align 1
   \                     ??SampleApp_HandleKeys?relay:
   \   000000   12....       LCALL   ?BDISPATCH
   \   000003   ......       DC24    SampleApp_HandleKeys

   \                                 In  segment BANK_RELAYS, align 1
   \                     ??SampleApp_MessageMSGCB?relay:
   \   000000   12....       LCALL   ?BDISPATCH
   \   000003   ......       DC24    SampleApp_MessageMSGCB

   \                                 In  segment BANK_RELAYS, align 1
   \                     ??SampleApp_SendPeriodicMessage?relay:
   \   000000   12....       LCALL   ?BDISPATCH
   \   000003   ......       DC24    SampleApp_SendPeriodicMessage

   \                                 In  segment BANK_RELAYS, align 1
   \                     ??UART_CallBackFunction?relay:
   \   000000   12....       LCALL   ?BDISPATCH
   \   000003   ......       DC24    UART_CallBackFunction

   \                                 In  segment XDATA_ROM_C, align 1
   \                     `?<Constant "Group 1">`:
   \   000000   47726F75     DB "Group 1"
   \            70203100

   \                                 In  segment XDATA_ROM_C, align 1
   \                     `?<Constant "SampleApp">`:
   \   000000   53616D70     DB "SampleApp"
   \            6C654170
   \            7000    

   \                                 In  segment XDATA_ROM_C, align 1
   \                     `?<Constant "Blind node">`:
   \   000000   426C696E     DB "Blind node"
   \            64206E6F
   \            646500  
    498          
    499          
    500          
    501          
    502          
    503          
    504          

   Maximum stack usage in bytes:

     Function                       ISTACK PSTACK XSTACK
     --------                       ------ ------ ------
     SampleApp_HandleKeys               0      0     22
       -> aps_FindGroup                 0      0     20
       -> aps_RemoveGroup               0      0     20
       -> aps_AddGroup                  0      0     20
     SampleApp_Init                     0      0     43
       -> afRegister                    0      0     80
       -> RegisterForKeys               0      0     80
       -> osal_memcpy                   0      0     86
       -> aps_AddGroup                  0      0     80
       -> HalUARTOpen                   0      0     80
       -> osal_start_timerEx            0      0     80
       -> HalLcdWriteString             0      0     80
     SampleApp_MessageMSGCB             0      0      0
     SampleApp_ProcessEvent             0      0     12
       -> osal_msg_receive              0      0     24
       -> osal_start_timerEx            0      0     24
       -> osal_msg_deallocate           0      0     24
       -> osal_msg_receive              0      0     24
       -> SampleApp_HandleKeys          0      0     24
       -> SampleApp_SendPeriodicMessage
                                        0      0     24
       -> osal_rand                     0      0     24
       -> osal_start_timerEx            0      0     24
     SampleApp_SendPeriodicMessage      2      0     42
       -> AF_DataRequest                0      0     60
     UART_CallBackFunction              2      0      0
       -> Hal_UART_RxBufLen             4      0      0
       -> HalUARTRead                   4      0      0
       -> HalUARTWrite                  4      0      0


   Segment part sizes:

     Function/Label                        Bytes
     --------------                        -----
     RX_BUFFER                               20
     RX_Length                                1
     SampleApp_ClusterList                    4
     SampleApp_SimpleDesc                    12
     SampleApp_epDesc                         6
     SampleApp_TaskID                         1
     SampleApp_NwkState                       1
     SampleApp_TransID                        1
     SampleApp_Periodic_DstAddr              12
     SampleApp_Flash_DstAddr                 12
     SampleApp_p2p_DstAddr                   12
     SampleApp_Group                         18
     SampleAppPeriodicCounter                 1
     SampleAppFlashCounter                    1
     SampleApp_Init                         256
     ??Subroutine2_0                         11
     SampleApp_ProcessEvent                 145
     ?Subroutine1                             2
     SampleApp_HandleKeys                    46
     ?Subroutine0                             5
     SampleApp_MessageMSGCB                   3
     SampleApp_SendPeriodicMessage          110
     UART_CallBackFunction                   55
     ??SampleApp_Init?relay                   6
     ??SampleApp_ProcessEvent?relay           6
     ??SampleApp_HandleKeys?relay             6
     ??SampleApp_MessageMSGCB?relay           6
     ??SampleApp_SendPeriodicMessage?relay    6
     ??UART_CallBackFunction?relay            6
     ?<Constant "Group 1">                    8
     ?<Constant "SampleApp">                 10
     ?<Constant "Blind node">                11

 
 633 bytes in segment BANKED_CODE
  36 bytes in segment BANK_RELAYS
  45 bytes in segment XDATA_ROM_C
  86 bytes in segment XDATA_Z
 
 669 bytes of CODE  memory
  45 bytes of CONST memory
  86 bytes of XDATA memory

Errors: none
Warnings: none
