###############################################################################
#                                                                             #
# IAR C/C++ Compiler V8.10.3.10338/W32 for 8051         30/Mar/2016  14:54:17 #
# Copyright 2004-2011 IAR Systems AB.                                         #
#                                                                             #
#    Core               =  plain                                              #
#    Code model         =  banked                                             #
#    Data model         =  large                                              #
#    Calling convention =  xdata reentrant                                    #
#    Constant location  =  data_rom                                           #
#    Dptr setup         =  1,16                                               #
#    Source file        =  E:\学习\Zigbee\Location\ROUTER\Projects\zstack\Sam #
#                          ples\SampleApp\Source\SampleApp.c                  #
#    Command line       =  -f E:\学习\Zigbee\Location\ROUTER\Projects\zstack\ #
#                          Samples\SampleApp\CC2530DB\..\..\..\Tools\CC2530DB #
#                          \f8wCoord.cfg (-DCPU32MHZ -DROOT=__near_func       #
#                          -DMAC_CFG_APP_PENDING_QUEUE=TRUE                   #
#                          -DZDO_COORDINATOR -DRTR_NWK -DBLINK_LEDS) -f       #
#                          E:\学习\Zigbee\Location\ROUTER\Projects\zstack\Sam #
#                          ples\SampleApp\CC2530DB\..\..\..\Tools\CC2530DB\f8 #
#                          wConfig.cfg (-DSECURE=0 -DZG_SECURE_DYNAMIC=0      #
#                          -DREFLECTOR -DDEFAULT_CHANLIST=0x00000800          #
#                          -DZDAPP_CONFIG_PAN_ID=0xFFFF                       #
#                          -DNWK_START_DELAY=100 -DEXTENDED_JOINING_RANDOM_MA #
#                          SK=0x007F -DBEACON_REQUEST_DELAY=100               #
#                          -DBEACON_REQ_DELAY_MASK=0x00FF                     #
#                          -DROUTE_EXPIRY_TIME=30 -DAPSC_ACK_WAIT_DURATION_PO #
#                          LLED=3000 -DNWK_INDIRECT_MSG_TIMEOUT=7             #
#                          -DMAX_RREQ_ENTRIES=8 -DAPSC_MAX_FRAME_RETRIES=3    #
#                          -DNWK_MAX_DATA_RETRIES=2                           #
#                          -DMAX_POLL_FAILURE_RETRIES=2 -DMAX_BCAST=9         #
#                          -DAPS_MAX_GROUPS=16 -DMAX_RTG_ENTRIES=40           #
#                          -DNWK_MAX_BINDING_ENTRIES=4                        #
#                          -DMAX_BINDING_CLUSTER_IDS=4 "-DDEFAULT_KEY={0x01,  #
#                          0x03, 0x05, 0x07, 0x09, 0x0B, 0x0D, 0x0F, 0x00,    #
#                          0x02, 0x04, 0x06, 0x08, 0x0A, 0x0C, 0x0D}"         #
#                          -DMAC_MAX_FRAME_SIZE=116 "-DCONST=const __code"    #
#                          -DGENERIC=__generic -DRFD_RCVC_ALWAYS_ON=FALSE     #
#                          -DPOLL_RATE=1000 -DQUEUED_POLL_RATE=100            #
#                          -DRESPONSE_POLL_RATE=100) -DREJOIN_POLL_RATE=440   #
#                          E:\学习\Zigbee\Location\ROUTER\Projects\zstack\Sam #
#                          ples\SampleApp\Source\SampleApp.c -D ZTOOL_P1 -D   #
#                          MT_TASK -D MT_SYS_FUNC -D MT_ZDO_FUNC -D           #
#                          LCD_SUPPORTED=DEBUG -lC E:\学习\Zigbee\Location\RO #
#                          UTER\Projects\zstack\Samples\SampleApp\CC2530DB\Co #
#                          ordinatorEB\List\ -lA E:\学习\Zigbee\Location\ROUT #
#                          ER\Projects\zstack\Samples\SampleApp\CC2530DB\Coor #
#                          dinatorEB\List\ --diag_suppress Pe001,Pa010 -o     #
#                          E:\学习\Zigbee\Location\ROUTER\Projects\zstack\Sam #
#                          ples\SampleApp\CC2530DB\CoordinatorEB\Obj\ -e      #
#                          --debug --core=plain --dptr=16,1                   #
#                          --data_model=large --code_model=banked             #
#                          --calling_convention=xdata_reentrant               #
#                          --place_constants=data_rom --nr_virtual_regs 16    #
#                          -I E:\学习\Zigbee\Location\ROUTER\Projects\zstack\ #
#                          Samples\SampleApp\CC2530DB\ -I                     #
#                          E:\学习\Zigbee\Location\ROUTER\Projects\zstack\Sam #
#                          ples\SampleApp\CC2530DB\..\SOURCE\ -I              #
#                          E:\学习\Zigbee\Location\ROUTER\Projects\zstack\Sam #
#                          ples\SampleApp\CC2530DB\..\..\..\ZMAIN\TI2530DB\   #
#                          -I E:\学习\Zigbee\Location\ROUTER\Projects\zstack\ #
#                          Samples\SampleApp\CC2530DB\..\..\..\..\..\COMPONEN #
#                          TS\MT\ -I E:\学习\Zigbee\Location\ROUTER\Projects\ #
#                          zstack\Samples\SampleApp\CC2530DB\..\..\..\..\..\C #
#                          OMPONENTS\HAL\INCLUDE\ -I                          #
#                          E:\学习\Zigbee\Location\ROUTER\Projects\zstack\Sam #
#                          ples\SampleApp\CC2530DB\..\..\..\..\..\COMPONENTS\ #
#                          HAL\TARGET\CC2530EB\ -I E:\学习\Zigbee\Location\RO #
#                          UTER\Projects\zstack\Samples\SampleApp\CC2530DB\.. #
#                          \..\..\..\..\COMPONENTS\OSAL\MCU\CCSOC\ -I         #
#                          E:\学习\Zigbee\Location\ROUTER\Projects\zstack\Sam #
#                          ples\SampleApp\CC2530DB\..\..\..\..\..\COMPONENTS\ #
#                          OSAL\INCLUDE\ -I E:\学习\Zigbee\Location\ROUTER\Pr #
#                          ojects\zstack\Samples\SampleApp\CC2530DB\..\..\..\ #
#                          ..\..\COMPONENTS\STACK\AF\ -I                      #
#                          E:\学习\Zigbee\Location\ROUTER\Projects\zstack\Sam #
#                          ples\SampleApp\CC2530DB\..\..\..\..\..\COMPONENTS\ #
#                          STACK\NWK\ -I E:\学习\Zigbee\Location\ROUTER\Proje #
#                          cts\zstack\Samples\SampleApp\CC2530DB\..\..\..\..\ #
#                          ..\COMPONENTS\STACK\SEC\ -I                        #
#                          E:\学习\Zigbee\Location\ROUTER\Projects\zstack\Sam #
#                          ples\SampleApp\CC2530DB\..\..\..\..\..\COMPONENTS\ #
#                          STACK\SAPI\ -I E:\学习\Zigbee\Location\ROUTER\Proj #
#                          ects\zstack\Samples\SampleApp\CC2530DB\..\..\..\.. #
#                          \..\COMPONENTS\STACK\SYS\ -I                       #
#                          E:\学习\Zigbee\Location\ROUTER\Projects\zstack\Sam #
#                          ples\SampleApp\CC2530DB\..\..\..\..\..\COMPONENTS\ #
#                          STACK\ZDO\ -I E:\学习\Zigbee\Location\ROUTER\Proje #
#                          cts\zstack\Samples\SampleApp\CC2530DB\..\..\..\..\ #
#                          ..\COMPONENTS\ZMAC\F8W\ -I                         #
#                          E:\学习\Zigbee\Location\ROUTER\Projects\zstack\Sam #
#                          ples\SampleApp\CC2530DB\..\..\..\..\..\COMPONENTS\ #
#                          ZMAC\ -I E:\学习\Zigbee\Location\ROUTER\Projects\z #
#                          stack\Samples\SampleApp\CC2530DB\..\..\..\..\..\CO #
#                          MPONENTS\SERVICES\SADDR\ -I                        #
#                          E:\学习\Zigbee\Location\ROUTER\Projects\zstack\Sam #
#                          ples\SampleApp\CC2530DB\..\..\..\..\..\COMPONENTS\ #
#                          SERVICES\SDATA\ -I E:\学习\Zigbee\Location\ROUTER\ #
#                          Projects\zstack\Samples\SampleApp\CC2530DB\..\..\. #
#                          .\..\..\COMPONENTS\MAC\INCLUDE\ -I                 #
#                          E:\学习\Zigbee\Location\ROUTER\Projects\zstack\Sam #
#                          ples\SampleApp\CC2530DB\..\..\..\..\..\COMPONENTS\ #
#                          MAC\HIGH_LEVEL\ -I E:\学习\Zigbee\Location\ROUTER\ #
#                          Projects\zstack\Samples\SampleApp\CC2530DB\..\..\. #
#                          .\..\..\COMPONENTS\MAC\LOW_LEVEL\srf04\ -I         #
#                          E:\学习\Zigbee\Location\ROUTER\Projects\zstack\Sam #
#                          ples\SampleApp\CC2530DB\..\..\..\..\..\COMPONENTS\ #
#                          MAC\LOW_LEVEL\srf04\SINGLE_CHIP\ -Ohz              #
#                          --require_prototypes                               #
#    List file          =  E:\学习\Zigbee\Location\ROUTER\Projects\zstack\Sam #
#                          ples\SampleApp\CC2530DB\CoordinatorEB\List\SampleA #
#                          pp.lst                                             #
#    Object file        =  E:\学习\Zigbee\Location\ROUTER\Projects\zstack\Sam #
#                          ples\SampleApp\CC2530DB\CoordinatorEB\Obj\SampleAp #
#                          p.r51                                              #
#                                                                             #
#                                                                             #
###############################################################################

E:\学习\Zigbee\Location\ROUTER\Projects\zstack\Samples\SampleApp\Source\SampleApp.c
      1          /**************************************************************************************************
      2          Filename:       SampleApp.c
      3          Revised:        $Date: 2009-03-18 15:56:27 -0700 (Wed, 18 Mar 2009) $
      4          Revision:       $Revision: 19453 $
      5          
      6          Description:    Sample Application (no Profile).
      7          
      8          
      9          Copyright 2007 Texas Instruments Incorporated. All rights reserved.
     10          
     11          IMPORTANT: Your use of this Software is limited to those specific rights
     12          granted under the terms of a software license agreement between the user
     13          who downloaded the software, his/her employer (which must be your employer)
     14          and Texas Instruments Incorporated (the "License").  You may not use this
     15          Software unless you agree to abide by the terms of the License. The License
     16          limits your use, and you acknowledge, that the Software may not be modified,
     17          copied or distributed unless embedded on a Texas Instruments microcontroller
     18          or used solely and exclusively in conjunction with a Texas Instruments radio
     19          frequency transceiver, which is integrated into your product.  Other than for
     20          the foregoing purpose, you may not use, reproduce, copy, prepare derivative
     21          works of, modify, distribute, perform, display or sell this Software and/or
     22          its documentation for any purpose.
     23          
     24          YOU FURTHER ACKNOWLEDGE AND AGREE THAT THE SOFTWARE AND DOCUMENTATION ARE
     25          PROVIDED AS IS?WITHOUT WARRANTY OF ANY KIND, EITHER EXPRESS OR IMPLIED,
     26          INCLUDING WITHOUT LIMITATION, ANY WARRANTY OF MERCHANTABILITY, TITLE,
     27          NON-INFRINGEMENT AND FITNESS FOR A PARTICULAR PURPOSE. IN NO EVENT SHALL
     28          TEXAS INSTRUMENTS OR ITS LICENSORS BE LIABLE OR OBLIGATED UNDER CONTRACT,
     29          NEGLIGENCE, STRICT LIABILITY, CONTRIBUTION, BREACH OF WARRANTY, OR OTHER
     30          LEGAL EQUITABLE THEORY ANY DIRECT OR INDIRECT DAMAGES OR EXPENSES
     31          INCLUDING BUT NOT LIMITED TO ANY INCIDENTAL, SPECIAL, INDIRECT, PUNITIVE
     32          OR CONSEQUENTIAL DAMAGES, LOST PROFITS OR LOST DATA, COST OF PROCUREMENT
     33          OF SUBSTITUTE GOODS, TECHNOLOGY, SERVICES, OR ANY CLAIMS BY THIRD PARTIES
     34          (INCLUDING BUT NOT LIMITED TO ANY DEFENSE THEREOF), OR OTHER SIMILAR COSTS.
     35          
     36          Should you have any questions regarding your right to use this Software,
     37          contact Texas Instruments Incorporated at www.TI.com.
     38          **************************************************************************************************/
     39          
     40          /*********************************************************************
     41          This application isn't intended to do anything useful, it is
     42          intended to be a simple example of an application's structure.
     43          
     44          This application sends it's messages either as broadcast or
     45          broadcast filtered group messages.  The other (more normal)
     46          message addressing is unicast.  Most of the other sample
     47          applications are written to support the unicast message model.
     48          
     49          Key control:
     50          SW1:  Sends a flash command to all devices in Group 1.
     51          SW2:  Adds/Removes (toggles) this device in and out
     52          of Group 1.  This will enable and disable the
     53          reception of the flash command.
     54          *********************************************************************/
     55          
     56          /*********************************************************************
     57          * INCLUDES
     58          */
     59          #include "OSAL.h"
     60          #include "ZGlobals.h"
     61          #include "AF.h"
     62          #include "aps_groups.h"
     63          #include "ZDApp.h"
     64          
     65          #include "SampleApp.h"
     66          #include "SampleAppHw.h"
     67          
     68          #include "OnBoard.h"
     69          
     70          /* HAL */
     71          #include "hal_lcd.h"
     72          #include "hal_led.h"
     73          #include "hal_key.h"
     74          #include "MT_UART.h"
     75          #include "MT_APP.h"
     76          #include "MT.h"
     77          #include "ds18b20.h"
     78          
     79          
     80          /* user define*/
     81          #include "string.h"
     82          #include "stdlib.h"
     83          
     84          /*********************************************************************
     85          * MACROS
     86          */
     87          
     88          /*********************************************************************
     89          * CONSTANTS
     90          */
     91          
     92          /*********************************************************************
     93          * TYPEDEFS
     94          */
     95          
     96          /*********************************************************************
     97          * GLOBAL VARIABLES全局变量定义
     98          */
     99          //串口
    100          #define MY_DEFINI_UART_PORT 0 
    101          #ifndef RX_MAX_LENGTH
    102          #define RX_MAX_LENGTH 20
    103          #endif

   \                                 In  segment XDATA_Z, align 1, keep-with-next
    104          uint8 RX_BUFFER[RX_MAX_LENGTH];
   \                     RX_BUFFER:
   \   000000                DS 20
   \   000014                REQUIRE __INIT_XDATA_Z

   \                                 In  segment XDATA_Z, align 1, keep-with-next
    105          uint8 RX_Length;
   \                     RX_Length:
   \   000000                DS 1
   \   000001                REQUIRE __INIT_XDATA_Z
    106          void UART_CallBackFunction(uint8 port, uint8 event);//当串口有数据到来时，调用此函数
    107          
    108          
    109          
    110          
    111          // This list should be filled with Application specific Cluster IDs.

   \                                 In  segment XDATA_ROM_C, align 1
    112          const cId_t SampleApp_ClusterList[SAMPLEAPP_MAX_CLUSTERS] =
   \                     SampleApp_ClusterList:
   \   000000   0100         DW 1
   \   000002   0200         DW 2
    113          {
    114            SAMPLEAPP_PERIODIC_CLUSTERID,
    115            SAMPLEAPP_FLASH_CLUSTERID
    116          };
    117          

   \                                 In  segment XDATA_ROM_C, align 1
    118          const SimpleDescriptionFormat_t SampleApp_SimpleDesc =
   \                     SampleApp_SimpleDesc:
   \   000000   14           DB 20
   \   000001   080F         DW 3848
   \   000003   0100         DW 1
   \   000005   00           DB 0
   \   000006   02           DB 2
   \   000007   ....         DW SampleApp_ClusterList
   \   000009   02           DB 2
   \   00000A   ....         DW SampleApp_ClusterList
    119          {
    120            SAMPLEAPP_ENDPOINT,              //  int Endpoint;
    121            SAMPLEAPP_PROFID,                //  uint16 AppProfId[2];
    122            SAMPLEAPP_DEVICEID,              //  uint16 AppDeviceId[2];
    123            SAMPLEAPP_DEVICE_VERSION,        //  int   AppDevVer:4;
    124            SAMPLEAPP_FLAGS,                 //  int   AppFlags:4;
    125            SAMPLEAPP_MAX_CLUSTERS,          //  uint8  AppNumInClusters;
    126            (cId_t *)SampleApp_ClusterList,  //  uint8 *pAppInClusterList;
    127            SAMPLEAPP_MAX_CLUSTERS,          //  uint8  AppNumInClusters;
    128            (cId_t *)SampleApp_ClusterList   //  uint8 *pAppInClusterList;
    129          };
    130          
    131          // This is the Endpoint/Interface description.  It is defined here, but
    132          // filled-in in SampleApp_Init().  Another way to go would be to fill
    133          // in the structure here and make it a "const" (in code space).  The
    134          // way it's defined in this sample app it is define in RAM.

   \                                 In  segment XDATA_Z, align 1, keep-with-next
    135          endPointDesc_t SampleApp_epDesc;
   \                     SampleApp_epDesc:
   \   000000                DS 6
   \   000006                REQUIRE __INIT_XDATA_Z
    136          
    137          /*********************************************************************
    138          * EXTERNAL VARIABLES
    139          */
    140          
    141          /*********************************************************************
    142          * EXTERNAL FUNCTIONS
    143          */
    144          
    145          /*********************************************************************
    146          * LOCAL VARIABLES
    147          */

   \                                 In  segment XDATA_Z, align 1, keep-with-next
    148          uint8 SampleApp_TaskID;   // Task ID for internal task/event processing
   \                     SampleApp_TaskID:
   \   000000                DS 1
   \   000001                REQUIRE __INIT_XDATA_Z
    149          // This variable will be received when
    150          // SampleApp_Init() is called.

   \                                 In  segment XDATA_Z, align 1, keep-with-next
    151          devStates_t SampleApp_NwkState;
   \                     SampleApp_NwkState:
   \   000000                DS 1
   \   000001                REQUIRE __INIT_XDATA_Z
    152          

   \                                 In  segment XDATA_Z, align 1, keep-with-next
    153          uint8 SampleApp_TransID;  // This is the unique message ID (counter)
   \                     SampleApp_TransID:
   \   000000                DS 1
   \   000001                REQUIRE __INIT_XDATA_Z
    154          

   \                                 In  segment XDATA_Z, align 1, keep-with-next
    155          afAddrType_t SampleApp_Periodic_DstAddr;
   \                     SampleApp_Periodic_DstAddr:
   \   000000                DS 12
   \   00000C                REQUIRE __INIT_XDATA_Z

   \                                 In  segment XDATA_Z, align 1, keep-with-next
    156          afAddrType_t SampleApp_Flash_DstAddr;
   \                     SampleApp_Flash_DstAddr:
   \   000000                DS 12
   \   00000C                REQUIRE __INIT_XDATA_Z

   \                                 In  segment XDATA_Z, align 1, keep-with-next
    157          afAddrType_t SampleApp_p2p_DstAddr;//点播地址
   \                     SampleApp_p2p_DstAddr:
   \   000000                DS 12
   \   00000C                REQUIRE __INIT_XDATA_Z
    158          

   \                                 In  segment XDATA_Z, align 1, keep-with-next
    159          aps_Group_t SampleApp_Group;
   \                     SampleApp_Group:
   \   000000                DS 18
   \   000012                REQUIRE __INIT_XDATA_Z
    160          

   \                                 In  segment XDATA_Z, align 1, keep-with-next
    161          uint8 SampleAppPeriodicCounter = 0;
   \                     SampleAppPeriodicCounter:
   \   000000                DS 1
   \   000001                REQUIRE __INIT_XDATA_Z

   \                                 In  segment XDATA_Z, align 1, keep-with-next
    162          uint8 SampleAppFlashCounter = 0;
   \                     SampleAppFlashCounter:
   \   000000                DS 1
   \   000001                REQUIRE __INIT_XDATA_Z
    163          //锚节点与协调器之间的数据传输使用

   \                                 In  segment XDATA_Z, align 1, keep-with-next
    164          uint8 rssi_val[10];
   \                     rssi_val:
   \   000000                DS 10
   \   00000A                REQUIRE __INIT_XDATA_Z

   \                                 In  segment XDATA_Z, align 1, keep-with-next
    165          uint8 rssi_index = 0; 
   \                     rssi_index:
   \   000000                DS 1
   \   000001                REQUIRE __INIT_XDATA_Z

   \                                 In  segment XDATA_Z, align 1, keep-with-next
    166          uint8 rssi_s[3] = {'\0'};
   \                     rssi_s:
   \   000000                DS 3
   \   000003                REQUIRE __INIT_XDATA_Z
    167          
    168          /*********************************************************************
    169          * LOCAL FUNCTIONS
    170          */
    171          void SampleApp_HandleKeys( uint8 shift, uint8 keys );
    172          void SampleApp_MessageMSGCB( afIncomingMSGPacket_t *pckt );
    173          
    174          
    175          void SampleApp_P2P_SendMessage(void);
    176          void SamplaAPP_ProcessBlindData( afIncomingMSGPacket_t *pkt);//参考节点处理接收到的锚节点的数据
    177          
    178          /*********************************************************************
    179          * NETWORK LAYER CALLBACKS
    180          */
    181          
    182          /*********************************************************************
    183          * PUBLIC FUNCTIONS
    184          */
    185          
    186          /*********************************************************************
    187          * @fn      SampleApp_Init
    188          *
    189          * @brief   Initialization function for the Generic App Task.
    190          *          This is called during initialization and should contain
    191          *          any application specific initialization (ie. hardware
    192          *          initialization/setup, table initialization, power up
    193          *          notificaiton ... ).
    194          *
    195          * @param   task_id - the ID assigned by OSAL.  This ID should be
    196          *                    used to send messages and set timers.
    197          *
    198          * @return  none
    199          */

   \                                 In  segment BANKED_CODE, align 1, keep-with-next
    200          void SampleApp_Init( uint8 task_id )
   \                     SampleApp_Init:
    201          {
   \   000000   74F5         MOV     A,#-0xb
   \   000002   12....       LCALL   ?BANKED_ENTER_XDATA
   \   000005                ; Saved register size: 11
   \   000005                ; Auto size: 29
   \   000005   74E3         MOV     A,#-0x1d
   \   000007   12....       LCALL   ?ALLOC_XSTACK8
   \   00000A   E9           MOV     A,R1
    202            SampleApp_TaskID = task_id;
   \   00000B   90....       MOV     DPTR,#SampleApp_TaskID
   \   00000E   F0           MOVX    @DPTR,A
    203            SampleApp_NwkState = DEV_INIT;
   \   00000F   90....       MOV     DPTR,#SampleApp_NwkState
   \   000012   7401         MOV     A,#0x1
   \   000014   F0           MOVX    @DPTR,A
    204            SampleApp_TransID = 0;
   \   000015   90....       MOV     DPTR,#SampleApp_TransID
   \   000018   E4           CLR     A
   \   000019   F0           MOVX    @DPTR,A
    205            halUARTCfg_t uartConfig;//初始化串口使用
    206            
    207            // Device hardware initialization can be added here or in main() (Zmain.c).
    208            // If the hardware is application specific - add it here.
    209            // If the hardware is other parts of the device add it in main().
    210            
    211          #if defined ( BUILD_ALL_DEVICES )
    212            // The "Demo" target is setup to have BUILD_ALL_DEVICES and HOLD_AUTO_START
    213            // We are looking at a jumper (defined in SampleAppHw.c) to be jumpered
    214            // together - if they are - we will start up a coordinator. Otherwise,
    215            // the device will start as a router.
    216            if ( readCoordinatorJumper() )
    217              zgDeviceLogicalType = ZG_DEVICETYPE_COORDINATOR;
    218            else
    219              zgDeviceLogicalType = ZG_DEVICETYPE_ROUTER;
    220          #endif // BUILD_ALL_DEVICES
    221            
    222          #if defined ( HOLD_AUTO_START )
    223            // HOLD_AUTO_START is a compile option that will surpress ZDApp
    224            //  from starting the device and wait for the application to
    225            //  start the device.
    226            ZDOInitDevice(0);
    227          #endif
    228            
    229            // Setup for the periodic message's destination address
    230            // Broadcast to everyone，
    231            //在定位实验中，盲节点应该使用广播形式，让参考节点能够均能接收到数据
    232            /*
    233            SampleApp_Periodic_DstAddr.addrMode = (afAddrMode_t)AddrBroadcast;
    234            SampleApp_Periodic_DstAddr.endPoint = SAMPLEAPP_ENDPOINT;
    235            SampleApp_Periodic_DstAddr.addr.shortAddr = 0xFFFF;
    236            
    237            */ 
    238            //组播形式的初期设想应该是每层作为一个组使用。本次测试实验，忽略
    239            // Setup for the flash command's destination address - Group 1
    240            /*
    241            SampleApp_Flash_DstAddr.addrMode = (afAddrMode_t)afAddrGroup;
    242            SampleApp_Flash_DstAddr.endPoint = SAMPLEAPP_ENDPOINT;
    243            SampleApp_Flash_DstAddr.addr.shortAddr = SAMPLEAPP_FLASH_GROUP;
    244            */
    245            
    246            // 点播设置。定位时，参考节点与协调器之间的通讯是应该是点播，从而让协调器能够分类
    247            
    248            SampleApp_p2p_DstAddr.addrMode = (afAddrMode_t)Addr16Bit;
   \   00001A   90....       MOV     DPTR,#SampleApp_p2p_DstAddr + 8
   \   00001D   7402         MOV     A,#0x2
   \   00001F   F0           MOVX    @DPTR,A
    249            SampleApp_p2p_DstAddr.endPoint = SAMPLEAPP_ENDPOINT;
   \   000020   A3           INC     DPTR
   \   000021   7414         MOV     A,#0x14
   \   000023   F0           MOVX    @DPTR,A
    250            SampleApp_p2p_DstAddr.addr.shortAddr = 0x0000;//发送信息给协调器
   \   000024   90....       MOV     DPTR,#SampleApp_p2p_DstAddr
   \   000027   E4           CLR     A
   \   000028   F0           MOVX    @DPTR,A
   \   000029   A3           INC     DPTR
   \   00002A   F0           MOVX    @DPTR,A
    251            
    252            
    253            // Fill out the endpoint description.
    254            SampleApp_epDesc.endPoint = SAMPLEAPP_ENDPOINT;
   \   00002B   90....       MOV     DPTR,#SampleApp_epDesc
   \   00002E   7414         MOV     A,#0x14
   \   000030   F0           MOVX    @DPTR,A
    255            SampleApp_epDesc.task_id = &SampleApp_TaskID;
   \   000031   A3           INC     DPTR
   \   000032   74..         MOV     A,#SampleApp_TaskID & 0xff
   \   000034   F0           MOVX    @DPTR,A
   \   000035   A3           INC     DPTR
   \   000036   74..         MOV     A,#(SampleApp_TaskID >> 8) & 0xff
   \   000038   F0           MOVX    @DPTR,A
    256            SampleApp_epDesc.simpleDesc
    257              = (SimpleDescriptionFormat_t *)&SampleApp_SimpleDesc;
   \   000039   A3           INC     DPTR
   \   00003A   74..         MOV     A,#SampleApp_SimpleDesc & 0xff
   \   00003C   F0           MOVX    @DPTR,A
   \   00003D   A3           INC     DPTR
   \   00003E   74..         MOV     A,#(SampleApp_SimpleDesc >> 8) & 0xff
   \   000040   F0           MOVX    @DPTR,A
    258            SampleApp_epDesc.latencyReq = noLatencyReqs;
   \   000041   A3           INC     DPTR
   \   000042   E4           CLR     A
   \   000043   F0           MOVX    @DPTR,A
    259            
    260            // Register the endpoint description with the AF
    261            afRegister( &SampleApp_epDesc );
   \   000044                ; Setup parameters for call to function afRegister
   \   000044   7A..         MOV     R2,#SampleApp_epDesc & 0xff
   \   000046   7B..         MOV     R3,#(SampleApp_epDesc >> 8) & 0xff
   \   000048   12....       LCALL   ??afRegister?relay
    262            
    263            // Register for all key events - This app will handle all key events
    264            RegisterForKeys( SampleApp_TaskID );
   \   00004B                ; Setup parameters for call to function RegisterForKeys
   \   00004B   90....       MOV     DPTR,#SampleApp_TaskID
   \   00004E   E0           MOVX    A,@DPTR
   \   00004F   F9           MOV     R1,A
   \   000050   12....       LCALL   ??RegisterForKeys?relay
    265            
    266            // By default, all devices start out in Group 1
    267            //默认情况下，所有设备都是组1，可以对此进行设置，从而时不同的设备进入不同的组
    268            SampleApp_Group.ID = 0x0001;
   \   000053   90....       MOV     DPTR,#SampleApp_Group
   \   000056   7401         MOV     A,#0x1
   \   000058   F0           MOVX    @DPTR,A
   \   000059   A3           INC     DPTR
   \   00005A   E4           CLR     A
   \   00005B   F0           MOVX    @DPTR,A
    269            osal_memcpy( SampleApp_Group.name, "Group 1", 7  );
   \   00005C                ; Setup parameters for call to function osal_memcpy
   \   00005C   75....       MOV     ?V0 + 0,#`?<Constant "Group 1">` & 0xff
   \   00005F   75....       MOV     ?V0 + 1,#(`?<Constant "Group 1">` >> 8) & 0xff
   \   000062   F5..         MOV     ?V0 + 2,A
   \   000064   78..         MOV     R0,#?V0 + 0
   \   000066   12....       LCALL   ?PUSH_XSTACK_I_THREE
   \   000069   7C07         MOV     R4,#0x7
   \   00006B   7D00         MOV     R5,#0x0
   \   00006D   7A..         MOV     R2,#(SampleApp_Group + 2) & 0xff
   \   00006F   7B..         MOV     R3,#((SampleApp_Group + 2) >> 8) & 0xff
   \   000071   12....       LCALL   ??osal_memcpy?relay
   \   000074   7403         MOV     A,#0x3
   \   000076   12....       LCALL   ?DEALLOC_XSTACK8
    270            aps_AddGroup( SAMPLEAPP_ENDPOINT, &SampleApp_Group );
   \   000079                ; Setup parameters for call to function aps_AddGroup
   \   000079   7A..         MOV     R2,#SampleApp_Group & 0xff
   \   00007B   7B..         MOV     R3,#(SampleApp_Group >> 8) & 0xff
   \   00007D   7914         MOV     R1,#0x14
   \   00007F   12....       LCALL   ??aps_AddGroup?relay
    271            
    272            
    273            //串口初始化
    274            uartConfig.configured       = TRUE;
   \   000082   85..82       MOV     DPL,?XSP + 0
   \   000085   85..83       MOV     DPH,?XSP + 1
   \   000088   7401         MOV     A,#0x1
   \   00008A   F0           MOVX    @DPTR,A
    275            uartConfig.baudRate         = HAL_UART_BR_9600;
   \   00008B   12....       LCALL   ?XSTACK_DISP0_8
   \   00008E   E4           CLR     A
   \   00008F   F0           MOVX    @DPTR,A
    276            uartConfig.flowControl      = FALSE;
   \   000090   7402         MOV     A,#0x2
   \   000092   12....       LCALL   ?XSTACK_DISP0_8
   \   000095   E4           CLR     A
   \   000096   F0           MOVX    @DPTR,A
    277            uartConfig.flowControlThreshold = MT_UART_THRESHOLD;//默认使用流控制
   \   000097   7403         MOV     A,#0x3
   \   000099   12....       LCALL   ?XSTACK_DISP0_8
   \   00009C   7440         MOV     A,#0x40
   \   00009E   F0           MOVX    @DPTR,A
   \   00009F   A3           INC     DPTR
   \   0000A0   E4           CLR     A
   \   0000A1   F0           MOVX    @DPTR,A
    278            uartConfig.rx.maxBufSize     = 200;
   \   0000A2   740A         MOV     A,#0xa
   \   0000A4   12....       LCALL   ?XSTACK_DISP0_8
   \   0000A7   74C8         MOV     A,#-0x38
   \   0000A9   F0           MOVX    @DPTR,A
   \   0000AA   A3           INC     DPTR
   \   0000AB   E4           CLR     A
   \   0000AC   F0           MOVX    @DPTR,A
    279            uartConfig.tx.maxBufSize     =200;
   \   0000AD   7412         MOV     A,#0x12
   \   0000AF   12....       LCALL   ?XSTACK_DISP0_8
   \   0000B2   74C8         MOV     A,#-0x38
   \   0000B4   F0           MOVX    @DPTR,A
   \   0000B5   A3           INC     DPTR
   \   0000B6   E4           CLR     A
   \   0000B7   F0           MOVX    @DPTR,A
    280            uartConfig.idleTimeout       = MT_UART_IDLE_TIMEOUT;
   \   0000B8   7405         MOV     A,#0x5
   \   0000BA   12....       LCALL   ?XSTACK_DISP0_8
   \   0000BD   7406         MOV     A,#0x6
   \   0000BF   F0           MOVX    @DPTR,A
    281            uartConfig.intEnable          =TRUE;
   \   0000C0   7416         MOV     A,#0x16
   \   0000C2   12....       LCALL   ?XSTACK_DISP0_8
   \   0000C5   7401         MOV     A,#0x1
   \   0000C7   F0           MOVX    @DPTR,A
    282            uartConfig.callBackFunc       =UART_CallBackFunction;
   \   0000C8   741B         MOV     A,#0x1b
   \   0000CA   12....       LCALL   ?XSTACK_DISP0_8
   \   0000CD   74..         MOV     A,#??UART_CallBackFunction?relay & 0xff
   \   0000CF   F0           MOVX    @DPTR,A
   \   0000D0   A3           INC     DPTR
   \   0000D1   74..         MOV     A,#(??UART_CallBackFunction?relay >> 8) & 0xff
   \   0000D3   F0           MOVX    @DPTR,A
    283            HalUARTOpen(MY_DEFINI_UART_PORT,&uartConfig);//使用自定义的串口初始化变量来开启串口通讯
   \   0000D4                ; Setup parameters for call to function HalUARTOpen
   \   0000D4   85..82       MOV     DPL,?XSP + 0
   \   0000D7   85..83       MOV     DPH,?XSP + 1
   \   0000DA   AA82         MOV     R2,DPL
   \   0000DC   AB83         MOV     R3,DPH
   \   0000DE   7900         MOV     R1,#0x0
   \   0000E0   12....       LCALL   ??HalUARTOpen?relay
    284            
    285            
    286            //此处设置的目的是，只有路由器或者终端定时触发USER_EVT用户自定义事件，从而调用相应函数，
    287            //协调器只负责接收数据，所以不需要
    288            
    289            osal_start_timerEx(SampleApp_TaskID,USER_EVT,4000);
   \   0000E3                ; Setup parameters for call to function osal_start_timerEx
   \   0000E3   7CA0         MOV     R4,#-0x60
   \   0000E5   7D0F         MOV     R5,#0xf
   \   0000E7   12....       LCALL   ?Subroutine7 & 0xFFFF
    290            
    291            
    292            
    293            
    294            
    295          #if defined ( LCD_SUPPORTED )
    296            HalLcdWriteString( "SampleApp", HAL_LCD_LINE_1 );
   \                     ??CrossCallReturnLabel_17:
   \   0000EA                ; Setup parameters for call to function HalLcdWriteString
   \   0000EA   7901         MOV     R1,#0x1
   \   0000EC   7A..         MOV     R2,#`?<Constant "SampleApp">` & 0xff
   \   0000EE   7B..         MOV     R3,#(`?<Constant "SampleApp">` >> 8) & 0xff
   \   0000F0   12....       LCALL   ??HalLcdWriteString?relay
    297          #endif
    298          }
   \   0000F3   741D         MOV     A,#0x1d
   \   0000F5   12....       LCALL   ?DEALLOC_XSTACK8
   \   0000F8   7F03         MOV     R7,#0x3
   \   0000FA   02....       LJMP    ?BANKED_LEAVE_XDATA

   \                                 In  segment BANKED_CODE, align 1, keep-with-next
   \                     ?Subroutine7:
   \   000000   7A08         MOV     R2,#0x8
   \   000002                REQUIRE ??Subroutine12_0
   \   000002                ; // Fall through to label ??Subroutine12_0

   \                                 In  segment BANKED_CODE, align 1, keep-with-next
   \                     ??Subroutine12_0:
   \   000000   7B00         MOV     R3,#0x0
   \   000002   90....       MOV     DPTR,#SampleApp_TaskID
   \   000005   E0           MOVX    A,@DPTR
   \   000006   F9           MOV     R1,A
   \   000007   12....       LCALL   ??osal_start_timerEx?relay
   \   00000A   22           RET
    299          
    300          /*********************************************************************
    301          * @fn      SampleApp_ProcessEvent
    302          *
    303          * @brief   Generic Application Task event processor.  This function
    304          *          is called to process all events for the task.  Events
    305          *          include timers, messages and any other user defined events.
    306          *
    307          * @param   task_id  - The OSAL assigned task ID.
    308          * @param   events - events to process.  This is a bit map and can
    309          *                   contain more than one event.
    310          *
    311          * @return  none
    312          */

   \                                 In  segment BANKED_CODE, align 1, keep-with-next
    313          uint16 SampleApp_ProcessEvent( uint8 task_id, uint16 events )
   \                     SampleApp_ProcessEvent:
    314          {
   \   000000   74F4         MOV     A,#-0xc
   \   000002   12....       LCALL   ?BANKED_ENTER_XDATA
   \   000005                ; Saved register size: 12
   \   000005                ; Auto size: 0
   \   000005   EA           MOV     A,R2
   \   000006   FE           MOV     R6,A
   \   000007   EB           MOV     A,R3
   \   000008   FF           MOV     R7,A
    315            afIncomingMSGPacket_t *MSGpkt;
    316            (void)task_id;  // Intentionally unreferenced parameter
    317            
    318            if ( events & SYS_EVENT_MSG )
   \   000009   5480         ANL     A,#0x80
   \   00000B   606D         JZ      ??SampleApp_ProcessEvent_0
    319            {
    320              MSGpkt = (afIncomingMSGPacket_t *)osal_msg_receive( SampleApp_TaskID );
   \   00000D                ; Setup parameters for call to function osal_msg_receive
   \   00000D   801F         SJMP    ??SampleApp_ProcessEvent_1
    321              while ( MSGpkt )
    322              {
    323                switch ( MSGpkt->hdr.event )
    324                {
    325                  // Received when a key is pressed
    326                case KEY_CHANGE:
    327                  SampleApp_HandleKeys( ((keyChange_t *)MSGpkt)->state, ((keyChange_t *)MSGpkt)->keys );
    328                  break;
    329                  
    330                  // Received when a messages is received (OTA) for this endpoint
    331                case AF_INCOMING_MSG_CMD:
    332                  SampleApp_MessageMSGCB( MSGpkt );
    333                  break;
    334                  
    335                  // Received whenever the device changes state in the network
    336                case ZDO_STATE_CHANGE:
    337                  SampleApp_NwkState = (devStates_t)(MSGpkt->hdr.status);
   \                     ??SampleApp_ProcessEvent_2:
   \   00000F   A3           INC     DPTR
   \   000010   E0           MOVX    A,@DPTR
   \   000011   90....       MOV     DPTR,#SampleApp_NwkState
   \   000014   F0           MOVX    @DPTR,A
    338                  if (// (SampleApp_NwkState == DEV_ZB_COORD)|| //协调器只负责接收数据，不发送数据
    339                      (SampleApp_NwkState == DEV_ROUTER)
    340                        || (SampleApp_NwkState == DEV_END_DEVICE) )
   \   000015   6407         XRL     A,#0x7
   \   000017   6005         JZ      ??SampleApp_ProcessEvent_3
   \   000019   E0           MOVX    A,@DPTR
   \   00001A   6406         XRL     A,#0x6
   \   00001C   7009         JNZ     ??CrossCallReturnLabel_19
    341                  {
    342                    // Start sending the periodic message in a regular interval.
    343                    osal_start_timerEx( SampleApp_TaskID,
    344                                       SAMPLEAPP_SEND_PERIODIC_MSG_EVT,
    345                                       SAMPLEAPP_SEND_PERIODIC_MSG_TIMEOUT );
   \                     ??SampleApp_ProcessEvent_3:
   \   00001E                ; Setup parameters for call to function osal_start_timerEx
   \   00001E   7C88         MOV     R4,#-0x78
   \   000020   7D13         MOV     R5,#0x13
   \   000022   7A01         MOV     R2,#0x1
   \   000024   12....       LCALL   ??Subroutine12_0 & 0xFFFF
    346                  }
    347                  else
    348                  {
    349                    // Device is no longer in the network
    350                  }
    351                  break;
    352                  
    353                default:
    354                  break;
    355                }
    356                
    357                // Release the memory
    358                osal_msg_deallocate( (uint8 *)MSGpkt );
   \                     ??CrossCallReturnLabel_19:
   \   000027                ; Setup parameters for call to function osal_msg_deallocate
   \   000027   AA..         MOV     R2,?V0 + 0
   \   000029   AB..         MOV     R3,?V0 + 1
   \   00002B   12....       LCALL   ??osal_msg_deallocate?relay
    359                
    360                // Next - if one is available
    361                MSGpkt = (afIncomingMSGPacket_t *)osal_msg_receive( SampleApp_TaskID );
   \   00002E                ; Setup parameters for call to function osal_msg_receive
   \                     ??SampleApp_ProcessEvent_1:
   \   00002E   90....       MOV     DPTR,#SampleApp_TaskID
   \   000031   E0           MOVX    A,@DPTR
   \   000032   F9           MOV     R1,A
   \   000033   12....       LCALL   ??osal_msg_receive?relay
   \   000036   8A..         MOV     ?V0 + 0,R2
   \   000038   8B..         MOV     ?V0 + 1,R3
   \   00003A   E5..         MOV     A,?V0 + 0
   \   00003C   45..         ORL     A,?V0 + 1
   \   00003E   6032         JZ      ??SampleApp_ProcessEvent_4
   \   000040   85..82       MOV     DPL,?V0 + 0
   \   000043   85..83       MOV     DPH,?V0 + 1
   \   000046   E0           MOVX    A,@DPTR
   \   000047   24E6         ADD     A,#-0x1a
   \   000049   601E         JZ      ??SampleApp_ProcessEvent_5
   \   00004B   245A         ADD     A,#0x5a
   \   00004D   6006         JZ      ??SampleApp_ProcessEvent_6
   \   00004F   24EF         ADD     A,#-0x11
   \   000051   60BC         JZ      ??SampleApp_ProcessEvent_2
   \   000053   80D2         SJMP    ??CrossCallReturnLabel_19
   \                     ??SampleApp_ProcessEvent_6:
   \   000055                ; Setup parameters for call to function SampleApp_HandleKeys
   \   000055   A3           INC     DPTR
   \   000056   A3           INC     DPTR
   \   000057   A3           INC     DPTR
   \   000058   E0           MOVX    A,@DPTR
   \   000059   FA           MOV     R2,A
   \   00005A   85..82       MOV     DPL,?V0 + 0
   \   00005D   85..83       MOV     DPH,?V0 + 1
   \   000060   A3           INC     DPTR
   \   000061   A3           INC     DPTR
   \   000062   E0           MOVX    A,@DPTR
   \   000063   F9           MOV     R1,A
   \   000064   12....       LCALL   ??SampleApp_HandleKeys?relay
   \   000067   80BE         SJMP    ??CrossCallReturnLabel_19
   \                     ??SampleApp_ProcessEvent_5:
   \   000069                ; Setup parameters for call to function SampleApp_MessageMSGCB
   \   000069   AA..         MOV     R2,?V0 + 0
   \   00006B   AB..         MOV     R3,?V0 + 1
   \   00006D   12....       LCALL   ??SampleApp_MessageMSGCB?relay
   \   000070   80B5         SJMP    ??CrossCallReturnLabel_19
    362              }
    363              
    364              // return unprocessed events
    365              return (events ^ SYS_EVENT_MSG);
   \                     ??SampleApp_ProcessEvent_4:
   \   000072   EE           MOV     A,R6
   \   000073   FA           MOV     R2,A
   \   000074   EF           MOV     A,R7
   \   000075   6480         XRL     A,#0x80
   \                     ??SampleApp_ProcessEvent_7:
   \   000077   FB           MOV     R3,A
   \   000078   801A         SJMP    ??SampleApp_ProcessEvent_8
    366            }
    367            
    368            
    369            if ( events & USER_EVT )//由于定义了p2p的目的节点为协调器，所以此处设置的是锚节点发送数据,使用自定义函数
   \                     ??SampleApp_ProcessEvent_0:
   \   00007A   EE           MOV     A,R6
   \   00007B   5408         ANL     A,#0x8
   \   00007D   6011         JZ      ??SampleApp_ProcessEvent_9
    370            {
    371              // Send the periodic message
    372              SampleApp_P2P_SendMessage();
   \   00007F                ; Setup parameters for call to function SampleApp_P2P_SendMessage
   \   00007F   12....       LCALL   ??SampleApp_P2P_SendMessage?relay
    373              osal_start_timerEx(SampleApp_TaskID, USER_EVT, 500);
   \   000082                ; Setup parameters for call to function osal_start_timerEx
   \   000082   7CF4         MOV     R4,#-0xc
   \   000084   7D01         MOV     R5,#0x1
   \   000086   12....       LCALL   ?Subroutine7 & 0xFFFF
    374              
    375              // return unprocessed events
    376              return (events ^ USER_EVT);
   \                     ??CrossCallReturnLabel_18:
   \   000089   EE           MOV     A,R6
   \   00008A   6408         XRL     A,#0x8
   \   00008C   FA           MOV     R2,A
   \   00008D   EF           MOV     A,R7
   \   00008E   80E7         SJMP    ??SampleApp_ProcessEvent_7
    377            }
    378            // Discard unknown events
    379            return 0;
   \                     ??SampleApp_ProcessEvent_9:
   \   000090   7A00         MOV     R2,#0x0
   \   000092   7B00         MOV     R3,#0x0
   \                     ??SampleApp_ProcessEvent_8:
   \   000094   7F04         MOV     R7,#0x4
   \   000096   02....       LJMP    ?BANKED_LEAVE_XDATA
    380          }
    381          
    382          /*********************************************************************
    383          * Event Generation Functions
    384          */
    385          /*********************************************************************
    386          * @fn      SampleApp_HandleKeys
    387          *
    388          * @brief   Handles all key events for this device.
    389          *
    390          * @param   shift - true if in shift/alt.
    391          * @param   keys - bit field for key events. Valid entries:
    392          *                 HAL_KEY_SW_2
    393          *                 HAL_KEY_SW_1
    394          *
    395          * @return  none
    396          */

   \                                 In  segment BANKED_CODE, align 1, keep-with-next
    397          void SampleApp_HandleKeys( uint8 shift, uint8 keys )
   \                     SampleApp_HandleKeys:
    398          {
   \   000000   74F6         MOV     A,#-0xa
   \   000002   12....       LCALL   ?BANKED_ENTER_XDATA
   \   000005                ; Saved register size: 10
   \   000005                ; Auto size: 0
   \   000005   EA           MOV     A,R2
    399            (void)shift;  // Intentionally unreferenced parameter
    400            
    401            if ( keys & HAL_KEY_SW_1 )
    402            {
    403              /* This key sends the Flash Command is sent to Group 1.
    404              * This device will not receive the Flash Command from this
    405              * device (even if it belongs to group 1).
    406              */
    407              //SampleApp_SendFlashMessage( SAMPLEAPP_FLASH_DURATION );
    408            }
    409            
    410            if ( keys & HAL_KEY_SW_2 )
   \   000006   A2E1         MOV     C,0xE0 /* A   */.1
   \   000008   5024         JNC     ??SampleApp_HandleKeys_0
    411            {
    412              /* The Flashr Command is sent to Group 1.
    413              * This key toggles this device in and out of group 1.
    414              * If this device doesn't belong to group 1, this application
    415              * will not receive the Flash command sent to group 1.
    416              */
    417              aps_Group_t *grp;
    418              grp = aps_FindGroup( SAMPLEAPP_ENDPOINT, SAMPLEAPP_FLASH_GROUP );
    419              if ( grp )
   \   00000A                ; Setup parameters for call to function aps_FindGroup
   \   00000A   7A01         MOV     R2,#0x1
   \   00000C   7B00         MOV     R3,#0x0
   \   00000E   7914         MOV     R1,#0x14
   \   000010   12....       LCALL   ??aps_FindGroup?relay
   \   000013   8B..         MOV     ?V0 + 1,R3
   \   000015   EA           MOV     A,R2
   \   000016   45..         ORL     A,?V0 + 1
   \   000018   600B         JZ      ??SampleApp_HandleKeys_1
    420              {
    421                // Remove from the group
    422                aps_RemoveGroup( SAMPLEAPP_ENDPOINT, SAMPLEAPP_FLASH_GROUP );
   \   00001A                ; Setup parameters for call to function aps_RemoveGroup
   \   00001A   7A01         MOV     R2,#0x1
   \   00001C   7B00         MOV     R3,#0x0
   \   00001E   7914         MOV     R1,#0x14
   \   000020   12....       LCALL   ??aps_RemoveGroup?relay
   \   000023   8009         SJMP    ??SampleApp_HandleKeys_0
    423              }
    424              else
    425              {
    426                // Add to the flash group
    427                aps_AddGroup( SAMPLEAPP_ENDPOINT, &SampleApp_Group );
   \                     ??SampleApp_HandleKeys_1:
   \   000025                ; Setup parameters for call to function aps_AddGroup
   \   000025   7A..         MOV     R2,#SampleApp_Group & 0xff
   \   000027   7B..         MOV     R3,#(SampleApp_Group >> 8) & 0xff
   \   000029   7914         MOV     R1,#0x14
   \   00002B   12....       LCALL   ??aps_AddGroup?relay
    428              }
    429            }
    430          }
   \                     ??SampleApp_HandleKeys_0:
   \   00002E   02....       LJMP    ?Subroutine0 & 0xFFFF

   \                                 In  segment BANKED_CODE, align 1, keep-with-next
   \                     ?Subroutine0:
   \   000000   7F02         MOV     R7,#0x2
   \   000002   02....       LJMP    ?BANKED_LEAVE_XDATA
    431          
    432          /*********************************************************************
    433          * LOCAL FUNCTIONS
    434          */
    435          
    436          /*********************************************************************
    437          * @fn      SampleApp_MessageMSGCB
    438          *
    439          * @brief   Data message processor callback.  This function processes
    440          *          any incoming data - probably from other devices.  So, based
    441          *          on cluster ID, perform the intended action.
    442          *
    443          * @param   none
    444          *
    445          * @return  none
    446          */

   \                                 In  segment BANKED_CODE, align 1, keep-with-next
    447          void SampleApp_MessageMSGCB( afIncomingMSGPacket_t *pkt )//在本函数中应该对接收到的盲节点的RSSI值信息处理
   \                     SampleApp_MessageMSGCB:
    448          {
   \   000000   74F6         MOV     A,#-0xa
   \   000002   12....       LCALL   ?BANKED_ENTER_XDATA
   \   000005                ; Saved register size: 10
   \   000005                ; Auto size: 0
   \   000005   EA           MOV     A,R2
   \   000006   FE           MOV     R6,A
   \   000007   EB           MOV     A,R3
   \   000008   FF           MOV     R7,A
    449          
    450            
    451            switch ( pkt->clusterId )
   \   000009   8E82         MOV     DPL,R6
   \   00000B   8F83         MOV     DPH,R7
   \   00000D   A3           INC     DPTR
   \   00000E   A3           INC     DPTR
   \   00000F   A3           INC     DPTR
   \   000010   A3           INC     DPTR
   \   000011   E0           MOVX    A,@DPTR
   \   000012   6408         XRL     A,#0x8
   \   000014   7002         JNZ     ??SampleApp_MessageMSGCB_0
   \   000016   A3           INC     DPTR
   \   000017   E0           MOVX    A,@DPTR
   \                     ??SampleApp_MessageMSGCB_0:
   \   000018   6003         JZ      $+5
   \   00001A   02....       LJMP    ??CrossCallReturnLabel_15 & 0xFFFF
    452            {
    453              //本句确定只有在路由器中才编译此函数，协调器不编译
    454            case SAMPLEAPP_BLIND_CLUSTERID://说明是盲节点发送来的数据，只有参考节点接收盲节点的信息
    455              //    SamplaAPP_ProcessBlindData(pkt );
    456             
    457            HalUARTWrite(0, pkt->cmd.Data, pkt->cmd.DataLength);   
   \   00001D                ; Setup parameters for call to function HalUARTWrite
   \   00001D   EE           MOV     A,R6
   \   00001E   241F         ADD     A,#0x1f
   \   000020   12....       LCALL   ?Subroutine9 & 0xFFFF
   \                     ??CrossCallReturnLabel_21:
   \   000023   FC           MOV     R4,A
   \   000024   A3           INC     DPTR
   \   000025   E0           MOVX    A,@DPTR
   \   000026   FD           MOV     R5,A
   \   000027   EE           MOV     A,R6
   \   000028   2421         ADD     A,#0x21
   \   00002A   12....       LCALL   ?Subroutine9 & 0xFFFF
   \                     ??CrossCallReturnLabel_22:
   \   00002D   FA           MOV     R2,A
   \   00002E   A3           INC     DPTR
   \   00002F   E0           MOVX    A,@DPTR
   \   000030   FB           MOV     R3,A
   \   000031   7900         MOV     R1,#0x0
   \   000033   12....       LCALL   ??HalUARTWrite?relay
    458              rssi_val[rssi_index++] = ((~pkt->rssi)+1); //得到rssi的值，并保存      
   \   000036   EE           MOV     A,R6
   \   000037   2418         ADD     A,#0x18
   \   000039   12....       LCALL   ?Subroutine9 & 0xFFFF
   \                     ??CrossCallReturnLabel_23:
   \   00003C   F4           CPL     A
   \   00003D   04           INC     A
   \   00003E   C0E0         PUSH    A
   \   000040   12....       LCALL   ?Subroutine3 & 0xFFFF
   \                     ??CrossCallReturnLabel_5:
   \   000043   D0E0         POP     A
   \   000045   12....       LCALL   ?Subroutine4 & 0xFFFF
    459              if(rssi_index == 10)//当接收到10次RSSI后进行平均值计算
   \                     ??CrossCallReturnLabel_7:
   \   000048   7072         JNZ     ??CrossCallReturnLabel_15
    460              {   
    461                uint8 i,max_i,min_i; 
    462                uint16 val = 0;
   \   00004A   7C00         MOV     R4,#0x0
   \   00004C   7D00         MOV     R5,#0x0
    463                //去除最大最小值，剩下的求取平均值;
    464                max_i = min_i = 0;          
   \   00004E   7F00         MOV     R7,#0x0
   \   000050   7E00         MOV     R6,#0x0
    465                for(i = 1; i<10; i++)
   \   000052   7801         MOV     R0,#0x1
    466                {
    467                  if(rssi_val[i]>rssi_val[max_i])
   \                     ??SampleApp_MessageMSGCB_1:
   \   000054   12....       LCALL   ?Subroutine1 & 0xFFFF
   \                     ??CrossCallReturnLabel_0:
   \   000057   5002         JNC     ??SampleApp_MessageMSGCB_2
    468                    max_i = i;              
   \   000059   E8           MOV     A,R0
   \   00005A   FE           MOV     R6,A
    469                  if(rssi_val[i]<rssi_val[min_i])
   \                     ??SampleApp_MessageMSGCB_2:
   \   00005B   12....       LCALL   ?Subroutine8 & 0xFFFF
   \                     ??CrossCallReturnLabel_13:
   \   00005E   5002         JNC     ??SampleApp_MessageMSGCB_3
    470                    min_i = i;
   \   000060   E8           MOV     A,R0
   \   000061   FF           MOV     R7,A
    471                }          
   \                     ??SampleApp_MessageMSGCB_3:
   \   000062   08           INC     R0
   \   000063   E8           MOV     A,R0
   \   000064   C3           CLR     C
   \   000065   940A         SUBB    A,#0xa
   \   000067   40EB         JC      ??SampleApp_MessageMSGCB_1
    472                for(i = 0; i<10; i++)
   \   000069   7800         MOV     R0,#0x0
    473                {
    474                  if(i!=max_i && i!=min_i)
   \                     ??SampleApp_MessageMSGCB_4:
   \   00006B   EE           MOV     A,R6
   \   00006C   68           XRL     A,R0
   \   00006D   6007         JZ      ??CrossCallReturnLabel_11
   \   00006F   EF           MOV     A,R7
   \   000070   68           XRL     A,R0
   \   000071   6003         JZ      ??CrossCallReturnLabel_11
    475                    val+=rssi_val[i];//去除最大最小值之后的8次RSSI值的总和
   \   000073   12....       LCALL   ?Subroutine6 & 0xFFFF
    476                }          
   \                     ??CrossCallReturnLabel_11:
   \   000076   08           INC     R0
   \   000077   E8           MOV     A,R0
   \   000078   C3           CLR     C
   \   000079   940A         SUBB    A,#0xa
   \   00007B   40EE         JC      ??SampleApp_MessageMSGCB_4
    477                val >>= 3;//右移为除法，右移三位表示除以8（val为8次的RSSI值的和）
   \   00007D   8C..         MOV     ?V0 + 0,R4
   \   00007F   8D..         MOV     ?V0 + 1,R5
   \   000081   7403         MOV     A,#0x3
   \   000083   78..         MOV     R0,#?V0 + 0
   \   000085   12....       LCALL   ?US_SHR
   \   000088   AC..         MOV     R4,?V0 + 0
   \   00008A   AD..         MOV     R5,?V0 + 1
    478                
    479                //      rssi_s[0] ='A';
    480                rssi_s[0] = val/100+0x30;//ASCII编码 0x30对应的是数字 0。这里加上这个数就是要显示数字字符
   \   00008C   EC           MOV     A,R4
   \   00008D   F8           MOV     R0,A
   \   00008E   ED           MOV     A,R5
   \   00008F   F9           MOV     R1,A
   \   000090   7A64         MOV     R2,#0x64
   \   000092   7B00         MOV     R3,#0x0
   \   000094   12....       LCALL   ?US_DIV_MOD
   \   000097   E8           MOV     A,R0
   \   000098   2430         ADD     A,#0x30
   \   00009A   90....       MOV     DPTR,#rssi_s
   \   00009D   12....       LCALL   ?Subroutine2 & 0xFFFF
    481                rssi_s[1] = val%100/10+0x30;
   \                     ??CrossCallReturnLabel_2:
   \   0000A0   12....       LCALL   ?US_DIV_MOD
   \   0000A3   EA           MOV     A,R2
   \   0000A4   F8           MOV     R0,A
   \   0000A5   EB           MOV     A,R3
   \   0000A6   F9           MOV     R1,A
   \   0000A7   7A0A         MOV     R2,#0xa
   \   0000A9   7B00         MOV     R3,#0x0
   \   0000AB   12....       LCALL   ?US_DIV_MOD
   \   0000AE   12....       LCALL   ?Subroutine5 & 0xFFFF
    482                rssi_s[2] = val%10+0x30;//以上三句分别代表得到：米，分米，厘米      
   \                     ??CrossCallReturnLabel_9:
   \   0000B1   12....       LCALL   ?US_DIV_MOD
   \   0000B4   EA           MOV     A,R2
   \   0000B5   2430         ADD     A,#0x30
   \   0000B7   A3           INC     DPTR
   \   0000B8   F0           MOVX    @DPTR,A
    483                
    484                //     SampleApp_P2P_SendMessage();//调用此函数进行信息发送
    485                
    486                HalUARTWrite(0, rssi_s, 3); //输出接收到的数据
   \   0000B9                ; Setup parameters for call to function HalUARTWrite
   \   0000B9   12....       LCALL   ?Subroutine10 & 0xFFFF
    487                //        HalUARTWrite(0, "\r\n", 1); // 回车换行 */
    488                
    489                rssi_index = 0;//每收到十次RSSI值计算一次需要的RSSI均值
    490                
    491                
    492              }
    493              break;
    494              
    495              
    496              
    497            }
    498          }
   \                     ??CrossCallReturnLabel_15:
   \   0000BC   02....       LJMP    ?Subroutine0 & 0xFFFF

   \                                 In  segment BANKED_CODE, align 1, keep-with-next
   \                     ?Subroutine9:
   \   000000   F582         MOV     DPL,A
   \   000002   EF           MOV     A,R7
   \   000003                REQUIRE ??Subroutine13_0
   \   000003                ; // Fall through to label ??Subroutine13_0

   \                                 In  segment BANKED_CODE, align 1, keep-with-next
   \                     ??Subroutine13_0:
   \   000000   12....       LCALL   ??Subroutine15_0 & 0xFFFF
   \                     ??CrossCallReturnLabel_24:
   \   000003   22           RET

   \                                 In  segment BANKED_CODE, align 1, keep-with-next
   \                     ?Subroutine10:
   \   000000   7C03         MOV     R4,#0x3
   \   000002   7D00         MOV     R5,#0x0
   \   000004   7A..         MOV     R2,#rssi_s & 0xff
   \   000006   7B..         MOV     R3,#(rssi_s >> 8) & 0xff
   \   000008   7900         MOV     R1,#0x0
   \   00000A   12....       LCALL   ??HalUARTWrite?relay
   \   00000D   90....       MOV     DPTR,#rssi_index
   \   000010   E4           CLR     A
   \   000011   F0           MOVX    @DPTR,A
   \   000012   22           RET

   \                                 In  segment BANKED_CODE, align 1, keep-with-next
   \                     ?Subroutine8:
   \   000000   8F..         MOV     ?V0 + 0,R7
   \   000002   12....       LCALL   ??Subroutine14_0 & 0xFFFF
   \                     ??CrossCallReturnLabel_26:
   \   000005   F9           MOV     R1,A
   \   000006   EA           MOV     A,R2
   \   000007   C3           CLR     C
   \   000008   99           SUBB    A,R1
   \   000009   22           RET

   \                                 In  segment BANKED_CODE, align 1, keep-with-next
   \                     ?Subroutine6:
   \   000000   12....       LCALL   ?Subroutine11 & 0xFFFF
   \                     ??CrossCallReturnLabel_28:
   \   000003   FA           MOV     R2,A
   \   000004   EC           MOV     A,R4
   \   000005   2A           ADD     A,R2
   \   000006   FC           MOV     R4,A
   \   000007   ED           MOV     A,R5
   \   000008   3400         ADDC    A,#0x0
   \   00000A   FD           MOV     R5,A
   \   00000B   22           RET

   \                                 In  segment BANKED_CODE, align 1, keep-with-next
   \                     ?Subroutine5:
   \   000000   E8           MOV     A,R0
   \   000001   2430         ADD     A,#0x30
   \   000003   A3           INC     DPTR
   \   000004   F0           MOVX    @DPTR,A
   \   000005   EC           MOV     A,R4
   \   000006   F8           MOV     R0,A
   \   000007   ED           MOV     A,R5
   \   000008   F9           MOV     R1,A
   \   000009   7A0A         MOV     R2,#0xa
   \   00000B   7B00         MOV     R3,#0x0
   \   00000D   22           RET

   \                                 In  segment BANKED_CODE, align 1, keep-with-next
   \                     ?Subroutine4:
   \   000000   F0           MOVX    @DPTR,A
   \   000001   90....       MOV     DPTR,#rssi_index
   \   000004   E0           MOVX    A,@DPTR
   \   000005   04           INC     A
   \   000006   F0           MOVX    @DPTR,A
   \   000007   640A         XRL     A,#0xa
   \   000009   22           RET

   \                                 In  segment BANKED_CODE, align 1, keep-with-next
   \                     ?Subroutine3:
   \   000000   90....       MOV     DPTR,#rssi_index
   \   000003   E0           MOVX    A,@DPTR
   \   000004   F8           MOV     R0,A
   \   000005   74..         MOV     A,#rssi_val & 0xff
   \   000007   28           ADD     A,R0
   \   000008   F582         MOV     DPL,A
   \   00000A   74..         MOV     A,#(rssi_val >> 8) & 0xff
   \   00000C   3400         ADDC    A,#0x0
   \   00000E   F583         MOV     DPH,A
   \   000010   22           RET

   \                                 In  segment BANKED_CODE, align 1, keep-with-next
   \                     ?Subroutine2:
   \   000000   F0           MOVX    @DPTR,A
   \   000001   EC           MOV     A,R4
   \   000002   F8           MOV     R0,A
   \   000003   ED           MOV     A,R5
   \   000004   F9           MOV     R1,A
   \   000005   7A64         MOV     R2,#0x64
   \   000007   7B00         MOV     R3,#0x0
   \   000009   22           RET

   \                                 In  segment BANKED_CODE, align 1, keep-with-next
   \                     ?Subroutine1:
   \   000000   12....       LCALL   ?Subroutine11 & 0xFFFF
   \                     ??CrossCallReturnLabel_27:
   \   000003   FA           MOV     R2,A
   \   000004   8E..         MOV     ?V0 + 0,R6
   \   000006   12....       LCALL   ??Subroutine14_0 & 0xFFFF
   \                     ??CrossCallReturnLabel_25:
   \   000009   C3           CLR     C
   \   00000A   9A           SUBB    A,R2
   \   00000B   22           RET

   \                                 In  segment BANKED_CODE, align 1, keep-with-next
   \                     ?Subroutine11:
   \   000000   88..         MOV     ?V0 + 0,R0
   \   000002                REQUIRE ??Subroutine14_0
   \   000002                ; // Fall through to label ??Subroutine14_0

   \                                 In  segment BANKED_CODE, align 1, keep-with-next
   \                     ??Subroutine14_0:
   \   000000   74..         MOV     A,#rssi_val & 0xff
   \   000002   25..         ADD     A,?V0 + 0
   \   000004   F582         MOV     DPL,A
   \   000006   74..         MOV     A,#(rssi_val >> 8) & 0xff
   \   000008                REQUIRE ??Subroutine15_0
   \   000008                ; // Fall through to label ??Subroutine15_0

   \                                 In  segment BANKED_CODE, align 1, keep-with-next
   \                     ??Subroutine15_0:
   \   000000   3400         ADDC    A,#0x0
   \   000002   F583         MOV     DPH,A
   \   000004   E0           MOVX    A,@DPTR
   \   000005   22           RET
    499          
    500          
    501          /*********************************************************************
    502          *********************************************************************/

   \                                 In  segment BANKED_CODE, align 1, keep-with-next
    503          static void UART_CallBackFunction(uint8 port, uint8 event)
   \                     UART_CallBackFunction:
    504          {
   \   000000   C082         PUSH    DPL
   \   000002   C083         PUSH    DPH
   \   000004                ; Saved register size: 2
   \   000004                ; Auto size: 0
    505            uint8 RX_Flag = 0;
    506            RX_Length = 0;//接收字符串长度
   \   000004   90....       MOV     DPTR,#RX_Length
   \   000007   E4           CLR     A
   \   000008   F0           MOVX    @DPTR,A
    507            RX_Flag = RX_Length = Hal_UART_RxBufLen(MY_DEFINI_UART_PORT);// 接收到的字符串长度
   \   000009                ; Setup parameters for call to function Hal_UART_RxBufLen
   \   000009   F9           MOV     R1,A
   \   00000A   12....       LCALL   ??Hal_UART_RxBufLen?relay
   \   00000D   EA           MOV     A,R2
   \   00000E   90....       MOV     DPTR,#RX_Length
   \   000011   F0           MOVX    @DPTR,A
    508            
    509            if(RX_Flag != 0)// 有数据存在
   \   000012   601C         JZ      ??UART_CallBackFunction_0
    510            {
    511              //读取串口数据
    512              HalUARTRead(MY_DEFINI_UART_PORT,RX_BUFFER,RX_Length);
   \   000014                ; Setup parameters for call to function HalUARTRead
   \   000014   FC           MOV     R4,A
   \   000015   7D00         MOV     R5,#0x0
   \   000017   7A..         MOV     R2,#RX_BUFFER & 0xff
   \   000019   7B..         MOV     R3,#(RX_BUFFER >> 8) & 0xff
   \   00001B   7900         MOV     R1,#0x0
   \   00001D   12....       LCALL   ??HalUARTRead?relay
    513              {
    514                //将数据发回给电脑，使用hal_uart.h的接口函数
    515                HalUARTWrite(MY_DEFINI_UART_PORT,RX_BUFFER,RX_Length);
   \   000020                ; Setup parameters for call to function HalUARTWrite
   \   000020   90....       MOV     DPTR,#RX_Length
   \   000023   E0           MOVX    A,@DPTR
   \   000024   FC           MOV     R4,A
   \   000025   7D00         MOV     R5,#0x0
   \   000027   7A..         MOV     R2,#RX_BUFFER & 0xff
   \   000029   7B..         MOV     R3,#(RX_BUFFER >> 8) & 0xff
   \   00002B   7900         MOV     R1,#0x0
   \   00002D   12....       LCALL   ??HalUARTWrite?relay
    516              }
    517            }
    518            
    519          }
   \                     ??UART_CallBackFunction_0:
   \   000030   D083         POP     DPH
   \   000032   D082         POP     DPL
   \   000034   02....       LJMP    ?BRET
    520          
    521          
    522          
    523          /*
    524          本函数是参考节点处理盲节点的数据处理函数，在本函数中应该得到锚节点与盲节点之间的距离，
    525          然后锚节点在发送数据的时候，将这个距离值也发送出去
    526          */
    527          

   \                                 In  segment BANKED_CODE, align 1, keep-with-next
    528          void SamplaAPP_ProcessBlindData( afIncomingMSGPacket_t *pkt)
   \                     SamplaAPP_ProcessBlindData:
    529          {
   \   000000   74F6         MOV     A,#-0xa
   \   000002   12....       LCALL   ?BANKED_ENTER_XDATA
   \   000005                ; Saved register size: 10
   \   000005                ; Auto size: 0
    530            uint8 i,max_i,min_i; 
    531            uint16 val = 0;
   \   000005   7C00         MOV     R4,#0x0
   \   000007   7D00         MOV     R5,#0x0
    532            
    533            rssi_val[rssi_index++] = ((~pkt->rssi)+1); //得到rssi的值，并保存      
   \   000009   EA           MOV     A,R2
   \   00000A   2418         ADD     A,#0x18
   \   00000C   F582         MOV     DPL,A
   \   00000E   EB           MOV     A,R3
   \   00000F   12....       LCALL   ??Subroutine13_0 & 0xFFFF
   \                     ??CrossCallReturnLabel_20:
   \   000012   F4           CPL     A
   \   000013   04           INC     A
   \   000014   C0E0         PUSH    A
   \   000016   12....       LCALL   ?Subroutine3 & 0xFFFF
   \                     ??CrossCallReturnLabel_6:
   \   000019   D0E0         POP     A
   \   00001B   12....       LCALL   ?Subroutine4 & 0xFFFF
    534            if(rssi_index == 10)//当接收到10次RSSI后进行平均值计算
   \                     ??CrossCallReturnLabel_8:
   \   00001E   7079         JNZ     ??SamplaAPP_ProcessBlindData_0
    535            {
    536              //去除最大最小值，剩下的求取平均值;
    537              max_i = min_i = 0;          
   \   000020   7F00         MOV     R7,#0x0
   \   000022   7E00         MOV     R6,#0x0
    538              for(i = 1; i<10; i++)
   \   000024   7801         MOV     R0,#0x1
    539              {
    540                if(rssi_val[i]>rssi_val[max_i])
   \                     ??SamplaAPP_ProcessBlindData_1:
   \   000026   12....       LCALL   ?Subroutine1 & 0xFFFF
   \                     ??CrossCallReturnLabel_1:
   \   000029   5002         JNC     ??SamplaAPP_ProcessBlindData_2
    541                  max_i = i;              
   \   00002B   E8           MOV     A,R0
   \   00002C   FE           MOV     R6,A
    542                if(rssi_val[i]<rssi_val[min_i])
   \                     ??SamplaAPP_ProcessBlindData_2:
   \   00002D   12....       LCALL   ?Subroutine8 & 0xFFFF
   \                     ??CrossCallReturnLabel_14:
   \   000030   5002         JNC     ??SamplaAPP_ProcessBlindData_3
    543                  min_i = i;
   \   000032   E8           MOV     A,R0
   \   000033   FF           MOV     R7,A
    544              }          
   \                     ??SamplaAPP_ProcessBlindData_3:
   \   000034   08           INC     R0
   \   000035   E8           MOV     A,R0
   \   000036   C3           CLR     C
   \   000037   940A         SUBB    A,#0xa
   \   000039   40EB         JC      ??SamplaAPP_ProcessBlindData_1
    545              for(i = 0; i<10; i++)
   \   00003B   7800         MOV     R0,#0x0
    546              {
    547                if(i!=max_i && i!=min_i)
   \                     ??SamplaAPP_ProcessBlindData_4:
   \   00003D   EE           MOV     A,R6
   \   00003E   68           XRL     A,R0
   \   00003F   6007         JZ      ??CrossCallReturnLabel_12
   \   000041   EF           MOV     A,R7
   \   000042   68           XRL     A,R0
   \   000043   6003         JZ      ??CrossCallReturnLabel_12
    548                  val+=rssi_val[i];//去除最大最小值之后的8次RSSI值的总和
   \   000045   12....       LCALL   ?Subroutine6 & 0xFFFF
    549              }          
   \                     ??CrossCallReturnLabel_12:
   \   000048   08           INC     R0
   \   000049   E8           MOV     A,R0
   \   00004A   C3           CLR     C
   \   00004B   940A         SUBB    A,#0xa
   \   00004D   40EE         JC      ??SamplaAPP_ProcessBlindData_4
    550              val >>= 3;//右移为除法，右移三位表示除以8（val为8次的RSSI值的和）
   \   00004F   8C..         MOV     ?V0 + 0,R4
   \   000051   8D..         MOV     ?V0 + 1,R5
   \   000053   7403         MOV     A,#0x3
   \   000055   78..         MOV     R0,#?V0 + 0
   \   000057   12....       LCALL   ?US_SHR
   \   00005A   AC..         MOV     R4,?V0 + 0
   \   00005C   AD..         MOV     R5,?V0 + 1
    551              
    552              rssi_s[0] ='A';
   \   00005E   90....       MOV     DPTR,#rssi_s
   \   000061   7441         MOV     A,#0x41
   \   000063   12....       LCALL   ?Subroutine2 & 0xFFFF
    553              rssi_s[1] = val/100+0x30;//ASCII编码 0x30对应的是数字 0。这里加上这个数就是要显示数字字符
   \                     ??CrossCallReturnLabel_3:
   \   000066   12....       LCALL   ?US_DIV_MOD
   \   000069   E8           MOV     A,R0
   \   00006A   2430         ADD     A,#0x30
   \   00006C   A3           INC     DPTR
   \   00006D   12....       LCALL   ?Subroutine2 & 0xFFFF
    554              rssi_s[2] = val%100/10+0x30;
   \                     ??CrossCallReturnLabel_4:
   \   000070   12....       LCALL   ?US_DIV_MOD
   \   000073   EA           MOV     A,R2
   \   000074   F8           MOV     R0,A
   \   000075   EB           MOV     A,R3
   \   000076   F9           MOV     R1,A
   \   000077   7A0A         MOV     R2,#0xa
   \   000079   7B00         MOV     R3,#0x0
   \   00007B   12....       LCALL   ?US_DIV_MOD
   \   00007E   12....       LCALL   ?Subroutine5 & 0xFFFF
    555              rssi_s[3] = val%10+0x30;//以上三句分别代表得到：米，分米，厘米      
                     ^
Warning[Pe175]: subscript out of range
   \                     ??CrossCallReturnLabel_10:
   \   000081   12....       LCALL   ?US_DIV_MOD
   \   000084   EA           MOV     A,R2
   \   000085   2430         ADD     A,#0x30
   \   000087   A3           INC     DPTR
   \   000088   F0           MOVX    @DPTR,A
    556              
    557              SampleApp_P2P_SendMessage();//调用此函数进行信息发送
   \   000089                ; Setup parameters for call to function SampleApp_P2P_SendMessage
   \   000089   12....       LCALL   ??SampleApp_P2P_SendMessage?relay
    558              
    559              HalUARTWrite(0, rssi_s, 3); //输出接收到的数据
   \   00008C                ; Setup parameters for call to function HalUARTWrite
   \   00008C   12....       LCALL   ?Subroutine10 & 0xFFFF
    560              //        HalUARTWrite(0, "\r\n", 1); // 回车换行 */
    561              
    562              rssi_index = 0;//每收到十次RSSI值计算一次需要的RSSI均值
    563              
    564              rssi_s[0] = 0;
   \                     ??CrossCallReturnLabel_16:
   \   00008F   90....       MOV     DPTR,#rssi_s
   \   000092   F0           MOVX    @DPTR,A
    565              rssi_s[1] = 0;
   \   000093   A3           INC     DPTR
   \   000094   F0           MOVX    @DPTR,A
    566              rssi_s[2] = 0;
   \   000095   A3           INC     DPTR
   \   000096   F0           MOVX    @DPTR,A
    567              rssi_s[3] = 0;
                     ^
Warning[Pe175]: subscript out of range
   \   000097   A3           INC     DPTR
   \   000098   F0           MOVX    @DPTR,A
    568            }
    569            
    570            //  HalUARTWrite(0,"Receive BlindNode Data ",sizeof("Receive BlindNode Data")); //输出接收到的数据  
    571            //  HalUARTWrite(0,"\r\n", 1); // 回车换行 
    572          }
   \                     ??SamplaAPP_ProcessBlindData_0:
   \   000099                REQUIRE ?Subroutine0
   \   000099                ; // Fall through to label ?Subroutine0
    573          
    574          
    575          /*********************************************************************
    576          * @fn      SampleApp_P2P_SendMessage
    577          *
    578          * @brief   point to point.
    579          *
    580          * @param   none
    581          *
    582          * @return  none
    583          在每个路由器或终端节点发送数据时，通过标定AF_DataRequest中的簇ID，就可以简单的
    584          将设备进行分类，即通过设置不同的ID来标定不同的设备，然后在协调器端，通过对接收到
    585          的消息的簇ID，来鉴别出是哪个设备发送来的数据
    586          */

   \                                 In  segment BANKED_CODE, align 1, keep-with-next
    587          void SampleApp_P2P_SendMessage( void )
   \                     SampleApp_P2P_SendMessage:
    588          //后期参考节点在发送数据的时候，必须发送的是参考节点与盲节点之间的距离值
    589          {
   \   000000   74F6         MOV     A,#-0xa
   \   000002   12....       LCALL   ?BANKED_ENTER_XDATA
   \   000005                ; Saved register size: 10
   \   000005                ; Auto size: 0
    590            
    591            /*AF在发送数据的时候是非常有针对性的，其第一个参数是发送目的地的地址之类的参数，在SampleApp_Init初始化的时候就定义了。
    592            然后就是设备描述符（系统默认就好），在SampleApp_Init也定义了。第三个参数本例使用自定义的p2p名字，作用是让接收函数（协调器）
    593            明确知道此类消息是那种类型（广播、组播、点播还是自定义的p2p）。
    594            所以一定要明确，在数据发送的时候，已经进行了很多的规定，以免造成接收端任务的麻烦  
    595            */
    596            
    597            
    598            if ( AF_DataRequest( &SampleApp_p2p_DstAddr, //发送目的地址+端点地址+传送模式
    599                                &SampleApp_epDesc,//源（答复或确认）终端的描述，即设备描述符
    600                                SAMPLEAPP_ROUT_BNODE_CLUSTERID,//已经定义（系统或自定义）的簇的ID，用来表示发送的数据标识，让接收函数可以用来分类
    601                                3,//发送数据的长度
    602                                rssi_s,//发送数据缓冲区，即数据值
    603                                &SampleApp_TransID,//任务ID，系统会分配？
    604                                AF_DISCV_ROUTE,//有效位掩码的发送选项
    605                                AF_DEFAULT_RADIUS ) == afStatus_SUCCESS )//传送跳数，通常使用默认值
   \   000005                ; Setup parameters for call to function AF_DataRequest
   \   000005   75..1E       MOV     ?V0 + 0,#0x1e
   \   000008   78..         MOV     R0,#?V0 + 0
   \   00000A   12....       LCALL   ?PUSH_XSTACK_I_ONE
   \   00000D   75....       MOV     ?V0 + 0,#SampleApp_TransID & 0xff
   \   000010   75....       MOV     ?V0 + 1,#(SampleApp_TransID >> 8) & 0xff
   \   000013   78..         MOV     R0,#?V0 + 0
   \   000015   12....       LCALL   ?PUSH_XSTACK_I_TWO
   \   000018   75....       MOV     ?V0 + 0,#rssi_s & 0xff
   \   00001B   75....       MOV     ?V0 + 1,#(rssi_s >> 8) & 0xff
   \   00001E   78..         MOV     R0,#?V0 + 0
   \   000020   12....       LCALL   ?PUSH_XSTACK_I_TWO
   \   000023   75..03       MOV     ?V0 + 0,#0x3
   \   000026   75..00       MOV     ?V0 + 1,#0x0
   \   000029   78..         MOV     R0,#?V0 + 0
   \   00002B   12....       LCALL   ?PUSH_XSTACK_I_TWO
   \   00002E   75..06       MOV     ?V0 + 0,#0x6
   \   000031   78..         MOV     R0,#?V0 + 0
   \   000033   12....       LCALL   ?PUSH_XSTACK_I_TWO
   \   000036   7920         MOV     R1,#0x20
   \   000038   7C..         MOV     R4,#SampleApp_epDesc & 0xff
   \   00003A   7D..         MOV     R5,#(SampleApp_epDesc >> 8) & 0xff
   \   00003C   7A..         MOV     R2,#SampleApp_p2p_DstAddr & 0xff
   \   00003E   7B..         MOV     R3,#(SampleApp_p2p_DstAddr >> 8) & 0xff
   \   000040   12....       LCALL   ??AF_DataRequest?relay
   \   000043   7409         MOV     A,#0x9
   \   000045   12....       LCALL   ?DEALLOC_XSTACK8
    606            {
    607            }
    608            else
    609            {
    610              // Error occurred in request to send.
    611            }
    612          }
   \   000048   02....       LJMP    ?Subroutine0 & 0xFFFF

   \                                 In  segment BANK_RELAYS, align 1
   \                     ??SampleApp_Init?relay:
   \   000000   12....       LCALL   ?BDISPATCH
   \   000003   ......       DC24    SampleApp_Init

   \                                 In  segment BANK_RELAYS, align 1
   \                     ??SampleApp_ProcessEvent?relay:
   \   000000   12....       LCALL   ?BDISPATCH
   \   000003   ......       DC24    SampleApp_ProcessEvent

   \                                 In  segment BANK_RELAYS, align 1
   \                     ??SampleApp_HandleKeys?relay:
   \   000000   12....       LCALL   ?BDISPATCH
   \   000003   ......       DC24    SampleApp_HandleKeys

   \                                 In  segment BANK_RELAYS, align 1
   \                     ??SampleApp_MessageMSGCB?relay:
   \   000000   12....       LCALL   ?BDISPATCH
   \   000003   ......       DC24    SampleApp_MessageMSGCB

   \                                 In  segment BANK_RELAYS, align 1
   \                     ??UART_CallBackFunction?relay:
   \   000000   12....       LCALL   ?BDISPATCH
   \   000003   ......       DC24    UART_CallBackFunction

   \                                 In  segment BANK_RELAYS, align 1
   \                     ??SamplaAPP_ProcessBlindData?relay:
   \   000000   12....       LCALL   ?BDISPATCH
   \   000003   ......       DC24    SamplaAPP_ProcessBlindData

   \                                 In  segment BANK_RELAYS, align 1
   \                     ??SampleApp_P2P_SendMessage?relay:
   \   000000   12....       LCALL   ?BDISPATCH
   \   000003   ......       DC24    SampleApp_P2P_SendMessage

   \                                 In  segment XDATA_ROM_C, align 1
   \                     `?<Constant "Group 1">`:
   \   000000   47726F75     DB "Group 1"
   \            70203100

   \                                 In  segment XDATA_ROM_C, align 1
   \                     `?<Constant "SampleApp">`:
   \   000000   53616D70     DB "SampleApp"
   \            6C654170
   \            7000    
    613          
    614          //

   Maximum stack usage in bytes:

     Function                       ISTACK PSTACK XSTACK
     --------                       ------ ------ ------
     SamplaAPP_ProcessBlindData         1      0     10
       -> SampleApp_P2P_SendMessage     0      0     20
       -> HalUARTWrite                  0      0     20
     SampleApp_HandleKeys               0      0     22
       -> aps_FindGroup                 0      0     20
       -> aps_RemoveGroup               0      0     20
       -> aps_AddGroup                  0      0     20
     SampleApp_Init                     0      0     43
       -> afRegister                    0      0     80
       -> RegisterForKeys               0      0     80
       -> osal_memcpy                   0      0     86
       -> aps_AddGroup                  0      0     80
       -> HalUARTOpen                   0      0     80
       -> osal_start_timerEx            0      0     80
       -> HalLcdWriteString             0      0     80
     SampleApp_MessageMSGCB             1      0     22
       -> HalUARTWrite                  0      0     20
       -> HalUARTWrite                  0      0     20
     SampleApp_P2P_SendMessage          0      0     31
       -> AF_DataRequest                0      0     38
     SampleApp_ProcessEvent             0      0     12
       -> osal_msg_receive              0      0     24
       -> osal_start_timerEx            0      0     24
       -> osal_msg_deallocate           0      0     24
       -> osal_msg_receive              0      0     24
       -> SampleApp_HandleKeys          0      0     24
       -> SampleApp_MessageMSGCB        0      0     24
       -> SampleApp_P2P_SendMessage     0      0     24
       -> osal_start_timerEx            0      0     24
     UART_CallBackFunction              2      0      0
       -> Hal_UART_RxBufLen             4      0      0
       -> HalUARTRead                   4      0      0
       -> HalUARTWrite                  4      0      0


   Segment part sizes:

     Function/Label                     Bytes
     --------------                     -----
     RX_BUFFER                            20
     RX_Length                             1
     SampleApp_ClusterList                 4
     SampleApp_SimpleDesc                 12
     SampleApp_epDesc                      6
     SampleApp_TaskID                      1
     SampleApp_NwkState                    1
     SampleApp_TransID                     1
     SampleApp_Periodic_DstAddr           12
     SampleApp_Flash_DstAddr              12
     SampleApp_p2p_DstAddr                12
     SampleApp_Group                      18
     SampleAppPeriodicCounter              1
     SampleAppFlashCounter                 1
     rssi_val                             10
     rssi_index                            1
     rssi_s                                3
     SampleApp_Init                      253
     ?Subroutine7                          2
     ??Subroutine12_0                     11
     SampleApp_ProcessEvent              153
     SampleApp_HandleKeys                 49
     ?Subroutine0                          5
     SampleApp_MessageMSGCB              191
     ?Subroutine9                          3
     ??Subroutine13_0                      4
     ?Subroutine10                        19
     ?Subroutine8                         10
     ?Subroutine6                         12
     ?Subroutine5                         14
     ?Subroutine4                         10
     ?Subroutine3                         17
     ?Subroutine2                         10
     ?Subroutine1                         12
     ?Subroutine11                         2
     ??Subroutine14_0                      8
     ??Subroutine15_0                      6
     UART_CallBackFunction                55
     SamplaAPP_ProcessBlindData          153
     SampleApp_P2P_SendMessage            75
     ??SampleApp_Init?relay                6
     ??SampleApp_ProcessEvent?relay        6
     ??SampleApp_HandleKeys?relay          6
     ??SampleApp_MessageMSGCB?relay        6
     ??UART_CallBackFunction?relay         6
     ??SamplaAPP_ProcessBlindData?relay    6
     ??SampleApp_P2P_SendMessage?relay     6
     ?<Constant "Group 1">                 8
     ?<Constant "SampleApp">              10

 
 1 074 bytes in segment BANKED_CODE
    42 bytes in segment BANK_RELAYS
    34 bytes in segment XDATA_ROM_C
   100 bytes in segment XDATA_Z
 
 1 116 bytes of CODE  memory
    34 bytes of CONST memory
   100 bytes of XDATA memory

Errors: none
Warnings: 2
