###############################################################################
#                                                                             #
# IAR C/C++ Compiler V8.10.3.10338/W32 for 8051         29/Mar/2016  15:26:18 #
# Copyright 2004-2011 IAR Systems AB.                                         #
#                                                                             #
#    Core               =  plain                                              #
#    Code model         =  banked                                             #
#    Data model         =  large                                              #
#    Calling convention =  xdata reentrant                                    #
#    Constant location  =  data_rom                                           #
#    Dptr setup         =  1,16                                               #
#    Source file        =  E:\学习\Zigbee\Location\ZStack-CC2530-2.3.0-1.4.0\ #
#                          Projects\zstack\Samples\SampleApp\Source\SampleApp #
#                          .c                                                 #
#    Command line       =  -f E:\学习\Zigbee\Location\ZStack-CC2530-2.3.0-1.4 #
#                          .0\Projects\zstack\Samples\SampleApp\CC2530DB\..\. #
#                          .\..\Tools\CC2530DB\f8wEndev.cfg (-DCPU32MHZ       #
#                          -DROOT=__near_func -DBLINK_LEDS) -f                #
#                          E:\学习\Zigbee\Location\ZStack-CC2530-2.3.0-1.4.0\ #
#                          Projects\zstack\Samples\SampleApp\CC2530DB\..\..\. #
#                          .\Tools\CC2530DB\f8wConfig.cfg (-DSECURE=0         #
#                          -DZG_SECURE_DYNAMIC=0 -DREFLECTOR                  #
#                          -DDEFAULT_CHANLIST=0x00000800                      #
#                          -DZDAPP_CONFIG_PAN_ID=0xFFFF                       #
#                          -DNWK_START_DELAY=100 -DEXTENDED_JOINING_RANDOM_MA #
#                          SK=0x007F -DBEACON_REQUEST_DELAY=100               #
#                          -DBEACON_REQ_DELAY_MASK=0x00FF                     #
#                          -DROUTE_EXPIRY_TIME=30 -DAPSC_ACK_WAIT_DURATION_PO #
#                          LLED=3000 -DNWK_INDIRECT_MSG_TIMEOUT=7             #
#                          -DMAX_RREQ_ENTRIES=8 -DAPSC_MAX_FRAME_RETRIES=3    #
#                          -DNWK_MAX_DATA_RETRIES=2                           #
#                          -DMAX_POLL_FAILURE_RETRIES=2 -DMAX_BCAST=9         #
#                          -DAPS_MAX_GROUPS=16 -DMAX_RTG_ENTRIES=40           #
#                          -DNWK_MAX_BINDING_ENTRIES=4                        #
#                          -DMAX_BINDING_CLUSTER_IDS=4 "-DDEFAULT_KEY={0x01,  #
#                          0x03, 0x05, 0x07, 0x09, 0x0B, 0x0D, 0x0F, 0x00,    #
#                          0x02, 0x04, 0x06, 0x08, 0x0A, 0x0C, 0x0D}"         #
#                          -DMAC_MAX_FRAME_SIZE=116 "-DCONST=const __code"    #
#                          -DGENERIC=__generic -DRFD_RCVC_ALWAYS_ON=FALSE     #
#                          -DPOLL_RATE=1000 -DQUEUED_POLL_RATE=100            #
#                          -DRESPONSE_POLL_RATE=100) -DREJOIN_POLL_RATE=440   #
#                          E:\学习\Zigbee\Location\ZStack-CC2530-2.3.0-1.4.0\ #
#                          Projects\zstack\Samples\SampleApp\Source\SampleApp #
#                          .c -D NWK_AUTO_POLL -D ZTOOL_P1 -D MT_TASK -D      #
#                          MT_SYS_FUNC -D MT_ZDO_FUNC -D LCD_SUPPORTED=DEBUG  #
#                          -lC E:\学习\Zigbee\Location\ZStack-CC2530-2.3.0-1. #
#                          4.0\Projects\zstack\Samples\SampleApp\CC2530DB\End #
#                          DeviceEB\List\ -lA E:\学习\Zigbee\Location\ZStack- #
#                          CC2530-2.3.0-1.4.0\Projects\zstack\Samples\SampleA #
#                          pp\CC2530DB\EndDeviceEB\List\ --diag_suppress      #
#                          Pe001,Pa010 -o E:\学习\Zigbee\Location\ZStack-CC25 #
#                          30-2.3.0-1.4.0\Projects\zstack\Samples\SampleApp\C #
#                          C2530DB\EndDeviceEB\Obj\ -e --debug --core=plain   #
#                          --dptr=16,1 --data_model=large                     #
#                          --code_model=banked --calling_convention=xdata_ree #
#                          ntrant --place_constants=data_rom                  #
#                          --nr_virtual_regs 16 -I E:\学习\Zigbee\Location\ZS #
#                          tack-CC2530-2.3.0-1.4.0\Projects\zstack\Samples\Sa #
#                          mpleApp\CC2530DB\ -I E:\学习\Zigbee\Location\ZStac #
#                          k-CC2530-2.3.0-1.4.0\Projects\zstack\Samples\Sampl #
#                          eApp\CC2530DB\..\SOURCE\ -I                        #
#                          E:\学习\Zigbee\Location\ZStack-CC2530-2.3.0-1.4.0\ #
#                          Projects\zstack\Samples\SampleApp\CC2530DB\..\..\. #
#                          .\ZMAIN\TI2530DB\ -I E:\学习\Zigbee\Location\ZStac #
#                          k-CC2530-2.3.0-1.4.0\Projects\zstack\Samples\Sampl #
#                          eApp\CC2530DB\..\..\..\..\..\COMPONENTS\MT\ -I     #
#                          E:\学习\Zigbee\Location\ZStack-CC2530-2.3.0-1.4.0\ #
#                          Projects\zstack\Samples\SampleApp\CC2530DB\..\..\. #
#                          .\..\..\COMPONENTS\HAL\INCLUDE\ -I                 #
#                          E:\学习\Zigbee\Location\ZStack-CC2530-2.3.0-1.4.0\ #
#                          Projects\zstack\Samples\SampleApp\CC2530DB\..\..\. #
#                          .\..\..\COMPONENTS\HAL\TARGET\CC2530EB\ -I         #
#                          E:\学习\Zigbee\Location\ZStack-CC2530-2.3.0-1.4.0\ #
#                          Projects\zstack\Samples\SampleApp\CC2530DB\..\..\. #
#                          .\..\..\COMPONENTS\OSAL\MCU\CCSOC\ -I              #
#                          E:\学习\Zigbee\Location\ZStack-CC2530-2.3.0-1.4.0\ #
#                          Projects\zstack\Samples\SampleApp\CC2530DB\..\..\. #
#                          .\..\..\COMPONENTS\OSAL\INCLUDE\ -I                #
#                          E:\学习\Zigbee\Location\ZStack-CC2530-2.3.0-1.4.0\ #
#                          Projects\zstack\Samples\SampleApp\CC2530DB\..\..\. #
#                          .\..\..\COMPONENTS\STACK\AF\ -I                    #
#                          E:\学习\Zigbee\Location\ZStack-CC2530-2.3.0-1.4.0\ #
#                          Projects\zstack\Samples\SampleApp\CC2530DB\..\..\. #
#                          .\..\..\COMPONENTS\STACK\NWK\ -I                   #
#                          E:\学习\Zigbee\Location\ZStack-CC2530-2.3.0-1.4.0\ #
#                          Projects\zstack\Samples\SampleApp\CC2530DB\..\..\. #
#                          .\..\..\COMPONENTS\STACK\SEC\ -I                   #
#                          E:\学习\Zigbee\Location\ZStack-CC2530-2.3.0-1.4.0\ #
#                          Projects\zstack\Samples\SampleApp\CC2530DB\..\..\. #
#                          .\..\..\COMPONENTS\STACK\SAPI\ -I                  #
#                          E:\学习\Zigbee\Location\ZStack-CC2530-2.3.0-1.4.0\ #
#                          Projects\zstack\Samples\SampleApp\CC2530DB\..\..\. #
#                          .\..\..\COMPONENTS\STACK\SYS\ -I                   #
#                          E:\学习\Zigbee\Location\ZStack-CC2530-2.3.0-1.4.0\ #
#                          Projects\zstack\Samples\SampleApp\CC2530DB\..\..\. #
#                          .\..\..\COMPONENTS\STACK\ZDO\ -I                   #
#                          E:\学习\Zigbee\Location\ZStack-CC2530-2.3.0-1.4.0\ #
#                          Projects\zstack\Samples\SampleApp\CC2530DB\..\..\. #
#                          .\..\..\COMPONENTS\ZMAC\F8W\ -I                    #
#                          E:\学习\Zigbee\Location\ZStack-CC2530-2.3.0-1.4.0\ #
#                          Projects\zstack\Samples\SampleApp\CC2530DB\..\..\. #
#                          .\..\..\COMPONENTS\ZMAC\ -I                        #
#                          E:\学习\Zigbee\Location\ZStack-CC2530-2.3.0-1.4.0\ #
#                          Projects\zstack\Samples\SampleApp\CC2530DB\..\..\. #
#                          .\..\..\COMPONENTS\SERVICES\SADDR\ -I              #
#                          E:\学习\Zigbee\Location\ZStack-CC2530-2.3.0-1.4.0\ #
#                          Projects\zstack\Samples\SampleApp\CC2530DB\..\..\. #
#                          .\..\..\COMPONENTS\SERVICES\SDATA\ -I              #
#                          E:\学习\Zigbee\Location\ZStack-CC2530-2.3.0-1.4.0\ #
#                          Projects\zstack\Samples\SampleApp\CC2530DB\..\..\. #
#                          .\..\..\COMPONENTS\MAC\INCLUDE\ -I                 #
#                          E:\学习\Zigbee\Location\ZStack-CC2530-2.3.0-1.4.0\ #
#                          Projects\zstack\Samples\SampleApp\CC2530DB\..\..\. #
#                          .\..\..\COMPONENTS\MAC\HIGH_LEVEL\ -I              #
#                          E:\学习\Zigbee\Location\ZStack-CC2530-2.3.0-1.4.0\ #
#                          Projects\zstack\Samples\SampleApp\CC2530DB\..\..\. #
#                          .\..\..\COMPONENTS\MAC\LOW_LEVEL\srf04\ -I         #
#                          E:\学习\Zigbee\Location\ZStack-CC2530-2.3.0-1.4.0\ #
#                          Projects\zstack\Samples\SampleApp\CC2530DB\..\..\. #
#                          .\..\..\COMPONENTS\MAC\LOW_LEVEL\srf04\SINGLE_CHIP #
#                          \ -Ohz --require_prototypes                        #
#    List file          =  E:\学习\Zigbee\Location\ZStack-CC2530-2.3.0-1.4.0\ #
#                          Projects\zstack\Samples\SampleApp\CC2530DB\EndDevi #
#                          ceEB\List\SampleApp.lst                            #
#    Object file        =  E:\学习\Zigbee\Location\ZStack-CC2530-2.3.0-1.4.0\ #
#                          Projects\zstack\Samples\SampleApp\CC2530DB\EndDevi #
#                          ceEB\Obj\SampleApp.r51                             #
#                                                                             #
#                                                                             #
###############################################################################

E:\学习\Zigbee\Location\ZStack-CC2530-2.3.0-1.4.0\Projects\zstack\Samples\SampleApp\Source\SampleApp.c
      1          /**************************************************************************************************
      2            Filename:       SampleApp.c
      3            Revised:        $Date: 2009-03-18 15:56:27 -0700 (Wed, 18 Mar 2009) $
      4            Revision:       $Revision: 19453 $
      5          
      6            Description:    Sample Application (no Profile).
      7          
      8          
      9            Copyright 2007 Texas Instruments Incorporated. All rights reserved.
     10          
     11            IMPORTANT: Your use of this Software is limited to those specific rights
     12            granted under the terms of a software license agreement between the user
     13            who downloaded the software, his/her employer (which must be your employer)
     14            and Texas Instruments Incorporated (the "License").  You may not use this
     15            Software unless you agree to abide by the terms of the License. The License
     16            limits your use, and you acknowledge, that the Software may not be modified,
     17            copied or distributed unless embedded on a Texas Instruments microcontroller
     18            or used solely and exclusively in conjunction with a Texas Instruments radio
     19            frequency transceiver, which is integrated into your product.  Other than for
     20            the foregoing purpose, you may not use, reproduce, copy, prepare derivative
     21            works of, modify, distribute, perform, display or sell this Software and/or
     22            its documentation for any purpose.
     23          
     24            YOU FURTHER ACKNOWLEDGE AND AGREE THAT THE SOFTWARE AND DOCUMENTATION ARE
     25            PROVIDED AS IS?WITHOUT WARRANTY OF ANY KIND, EITHER EXPRESS OR IMPLIED,
     26            INCLUDING WITHOUT LIMITATION, ANY WARRANTY OF MERCHANTABILITY, TITLE,
     27            NON-INFRINGEMENT AND FITNESS FOR A PARTICULAR PURPOSE. IN NO EVENT SHALL
     28            TEXAS INSTRUMENTS OR ITS LICENSORS BE LIABLE OR OBLIGATED UNDER CONTRACT,
     29            NEGLIGENCE, STRICT LIABILITY, CONTRIBUTION, BREACH OF WARRANTY, OR OTHER
     30            LEGAL EQUITABLE THEORY ANY DIRECT OR INDIRECT DAMAGES OR EXPENSES
     31            INCLUDING BUT NOT LIMITED TO ANY INCIDENTAL, SPECIAL, INDIRECT, PUNITIVE
     32            OR CONSEQUENTIAL DAMAGES, LOST PROFITS OR LOST DATA, COST OF PROCUREMENT
     33            OF SUBSTITUTE GOODS, TECHNOLOGY, SERVICES, OR ANY CLAIMS BY THIRD PARTIES
     34            (INCLUDING BUT NOT LIMITED TO ANY DEFENSE THEREOF), OR OTHER SIMILAR COSTS.
     35          
     36            Should you have any questions regarding your right to use this Software,
     37            contact Texas Instruments Incorporated at www.TI.com.
     38          **************************************************************************************************/
     39          
     40          /*********************************************************************
     41            This application isn't intended to do anything useful, it is
     42            intended to be a simple example of an application's structure.
     43          
     44            This application sends it's messages either as broadcast or
     45            broadcast filtered group messages.  The other (more normal)
     46            message addressing is unicast.  Most of the other sample
     47            applications are written to support the unicast message model.
     48          
     49            Key control:
     50              SW1:  Sends a flash command to all devices in Group 1.
     51              SW2:  Adds/Removes (toggles) this device in and out
     52                    of Group 1.  This will enable and disable the
     53                    reception of the flash command.
     54          *********************************************************************/
     55          
     56          /*********************************************************************
     57           * INCLUDES
     58           */
     59          #include "OSAL.h"
     60          #include "ZGlobals.h"
     61          #include "AF.h"
     62          #include "aps_groups.h"
     63          #include "ZDApp.h"
     64          
     65          #include "SampleApp.h"
     66          #include "SampleAppHw.h"
     67          
     68          #include "OnBoard.h"
     69          
     70          /* HAL */
     71          #include "hal_lcd.h"
     72          #include "hal_led.h"
     73          #include "hal_key.h"
     74          #include "MT_UART.h"
     75          #include "MT_APP.h"
     76          #include "MT.h"
     77          #include "ds18b20.h"
     78          
     79          
     80          /* user define*/
     81          #include "string.h"
     82          #include "stdlib.h"
     83          
     84          /*********************************************************************
     85           * MACROS
     86           */
     87          
     88          /*********************************************************************
     89           * CONSTANTS
     90           */
     91          
     92          /*********************************************************************
     93           * TYPEDEFS
     94           */
     95          
     96          /*********************************************************************
     97           * GLOBAL VARIABLES全局变量定义
     98           */
     99          //串口
    100          #define MY_DEFINI_UART_PORT 0 
    101          #ifndef RX_MAX_LENGTH
    102          #define RX_MAX_LENGTH 20
    103          #endif

   \                                 In  segment XDATA_Z, align 1, keep-with-next
    104          uint8 RX_BUFFER[RX_MAX_LENGTH];
   \                     RX_BUFFER:
   \   000000                DS 20
   \   000014                REQUIRE __INIT_XDATA_Z

   \                                 In  segment XDATA_Z, align 1, keep-with-next
    105          uint8 RX_Length;
   \                     RX_Length:
   \   000000                DS 1
   \   000001                REQUIRE __INIT_XDATA_Z
    106          void UART_CallBackFunction(uint8 port, uint8 event);//当串口有数据到来时，调用此函数
    107          
    108          
    109          
    110          
    111          // This list should be filled with Application specific Cluster IDs.

   \                                 In  segment XDATA_ROM_C, align 1
    112          const cId_t SampleApp_ClusterList[SAMPLEAPP_MAX_CLUSTERS] =
   \                     SampleApp_ClusterList:
   \   000000   0100         DW 1
   \   000002   0200         DW 2
    113          {
    114            SAMPLEAPP_PERIODIC_CLUSTERID,
    115            SAMPLEAPP_FLASH_CLUSTERID
    116          };
    117          

   \                                 In  segment XDATA_ROM_C, align 1
    118          const SimpleDescriptionFormat_t SampleApp_SimpleDesc =
   \                     SampleApp_SimpleDesc:
   \   000000   14           DB 20
   \   000001   080F         DW 3848
   \   000003   0100         DW 1
   \   000005   00           DB 0
   \   000006   02           DB 2
   \   000007   ....         DW SampleApp_ClusterList
   \   000009   02           DB 2
   \   00000A   ....         DW SampleApp_ClusterList
    119          {
    120            SAMPLEAPP_ENDPOINT,              //  int Endpoint;
    121            SAMPLEAPP_PROFID,                //  uint16 AppProfId[2];
    122            SAMPLEAPP_DEVICEID,              //  uint16 AppDeviceId[2];
    123            SAMPLEAPP_DEVICE_VERSION,        //  int   AppDevVer:4;
    124            SAMPLEAPP_FLAGS,                 //  int   AppFlags:4;
    125            SAMPLEAPP_MAX_CLUSTERS,          //  uint8  AppNumInClusters;
    126            (cId_t *)SampleApp_ClusterList,  //  uint8 *pAppInClusterList;
    127            SAMPLEAPP_MAX_CLUSTERS,          //  uint8  AppNumInClusters;
    128            (cId_t *)SampleApp_ClusterList   //  uint8 *pAppInClusterList;
    129          };
    130          
    131          // This is the Endpoint/Interface description.  It is defined here, but
    132          // filled-in in SampleApp_Init().  Another way to go would be to fill
    133          // in the structure here and make it a "const" (in code space).  The
    134          // way it's defined in this sample app it is define in RAM.

   \                                 In  segment XDATA_Z, align 1, keep-with-next
    135          endPointDesc_t SampleApp_epDesc;
   \                     SampleApp_epDesc:
   \   000000                DS 6
   \   000006                REQUIRE __INIT_XDATA_Z
    136          
    137          /*********************************************************************
    138           * EXTERNAL VARIABLES
    139           */
    140          
    141          /*********************************************************************
    142           * EXTERNAL FUNCTIONS
    143           */
    144          
    145          /*********************************************************************
    146           * LOCAL VARIABLES
    147           */

   \                                 In  segment XDATA_Z, align 1, keep-with-next
    148          uint8 SampleApp_TaskID;   // Task ID for internal task/event processing
   \                     SampleApp_TaskID:
   \   000000                DS 1
   \   000001                REQUIRE __INIT_XDATA_Z
    149                                    // This variable will be received when
    150                                    // SampleApp_Init() is called.

   \                                 In  segment XDATA_Z, align 1, keep-with-next
    151          devStates_t SampleApp_NwkState;
   \                     SampleApp_NwkState:
   \   000000                DS 1
   \   000001                REQUIRE __INIT_XDATA_Z
    152          

   \                                 In  segment XDATA_Z, align 1, keep-with-next
    153          uint8 SampleApp_TransID;  // This is the unique message ID (counter)
   \                     SampleApp_TransID:
   \   000000                DS 1
   \   000001                REQUIRE __INIT_XDATA_Z
    154          

   \                                 In  segment XDATA_Z, align 1, keep-with-next
    155          afAddrType_t SampleApp_Periodic_DstAddr;
   \                     SampleApp_Periodic_DstAddr:
   \   000000                DS 12
   \   00000C                REQUIRE __INIT_XDATA_Z

   \                                 In  segment XDATA_Z, align 1, keep-with-next
    156          afAddrType_t SampleApp_Flash_DstAddr;
   \                     SampleApp_Flash_DstAddr:
   \   000000                DS 12
   \   00000C                REQUIRE __INIT_XDATA_Z

   \                                 In  segment XDATA_Z, align 1, keep-with-next
    157          afAddrType_t SampleApp_p2p_DstAddr;//点播地址
   \                     SampleApp_p2p_DstAddr:
   \   000000                DS 12
   \   00000C                REQUIRE __INIT_XDATA_Z
    158          

   \                                 In  segment XDATA_Z, align 1, keep-with-next
    159          aps_Group_t SampleApp_Group;
   \                     SampleApp_Group:
   \   000000                DS 18
   \   000012                REQUIRE __INIT_XDATA_Z
    160          

   \                                 In  segment XDATA_Z, align 1, keep-with-next
    161          uint8 SampleAppPeriodicCounter = 0;
   \                     SampleAppPeriodicCounter:
   \   000000                DS 1
   \   000001                REQUIRE __INIT_XDATA_Z

   \                                 In  segment XDATA_Z, align 1, keep-with-next
    162          uint8 SampleAppFlashCounter = 0;
   \                     SampleAppFlashCounter:
   \   000000                DS 1
   \   000001                REQUIRE __INIT_XDATA_Z
    163          
    164          /*********************************************************************
    165           * LOCAL FUNCTIONS
    166           */
    167          void SampleApp_HandleKeys( uint8 shift, uint8 keys );
    168          void SampleApp_MessageMSGCB( afIncomingMSGPacket_t *pckt );
    169          void SampleApp_SendPeriodicMessage( void );
    170          void SampleApp_SendFlashMessage( uint16 flashTime );
    171          void SampleApp_P2P_SendMessage(void);
    172          
    173          /*********************************************************************
    174           * NETWORK LAYER CALLBACKS
    175           */
    176          
    177          /*********************************************************************
    178           * PUBLIC FUNCTIONS
    179           */
    180          
    181          /*********************************************************************
    182           * @fn      SampleApp_Init
    183           *
    184           * @brief   Initialization function for the Generic App Task.
    185           *          This is called during initialization and should contain
    186           *          any application specific initialization (ie. hardware
    187           *          initialization/setup, table initialization, power up
    188           *          notificaiton ... ).
    189           *
    190           * @param   task_id - the ID assigned by OSAL.  This ID should be
    191           *                    used to send messages and set timers.
    192           *
    193           * @return  none
    194           */

   \                                 In  segment BANKED_CODE, align 1, keep-with-next
    195          void SampleApp_Init( uint8 task_id )
   \                     SampleApp_Init:
    196          {
   \   000000   74F5         MOV     A,#-0xb
   \   000002   12....       LCALL   ?BANKED_ENTER_XDATA
   \   000005                ; Saved register size: 11
   \   000005                ; Auto size: 29
   \   000005   74E3         MOV     A,#-0x1d
   \   000007   12....       LCALL   ?ALLOC_XSTACK8
   \   00000A   E9           MOV     A,R1
    197            SampleApp_TaskID = task_id;
   \   00000B   90....       MOV     DPTR,#SampleApp_TaskID
   \   00000E   F0           MOVX    @DPTR,A
    198            SampleApp_NwkState = DEV_INIT;
   \   00000F   90....       MOV     DPTR,#SampleApp_NwkState
   \   000012   7401         MOV     A,#0x1
   \   000014   F0           MOVX    @DPTR,A
    199            SampleApp_TransID = 0;
   \   000015   90....       MOV     DPTR,#SampleApp_TransID
   \   000018   E4           CLR     A
   \   000019   F0           MOVX    @DPTR,A
    200            halUARTCfg_t uartConfig;//初始化串口使用
    201          
    202            // Device hardware initialization can be added here or in main() (Zmain.c).
    203            // If the hardware is application specific - add it here.
    204            // If the hardware is other parts of the device add it in main().
    205          
    206           #if defined ( BUILD_ALL_DEVICES )
    207            // The "Demo" target is setup to have BUILD_ALL_DEVICES and HOLD_AUTO_START
    208            // We are looking at a jumper (defined in SampleAppHw.c) to be jumpered
    209            // together - if they are - we will start up a coordinator. Otherwise,
    210            // the device will start as a router.
    211            if ( readCoordinatorJumper() )
    212              zgDeviceLogicalType = ZG_DEVICETYPE_COORDINATOR;
    213            else
    214              zgDeviceLogicalType = ZG_DEVICETYPE_ROUTER;
    215          #endif // BUILD_ALL_DEVICES
    216          
    217          #if defined ( HOLD_AUTO_START )
    218            // HOLD_AUTO_START is a compile option that will surpress ZDApp
    219            //  from starting the device and wait for the application to
    220            //  start the device.
    221            ZDOInitDevice(0);
    222          #endif
    223          
    224            // Setup for the periodic message's destination address
    225            // Broadcast to everyone，
    226            //在定位实验中，盲节点应该使用广播形式，让参考节点能够均能接收到数据
    227          #if defined RTR_NWK && !defined ZDO_COORDINATOR
    228            SampleApp_Periodic_DstAddr.addrMode = (afAddrMode_t)AddrBroadcast;
    229            SampleApp_Periodic_DstAddr.endPoint = SAMPLEAPP_ENDPOINT;
    230            SampleApp_Periodic_DstAddr.addr.shortAddr = 0xFFFF;
    231          #endif  
    232          
    233            //组播形式的初期设想应该是每层作为一个组使用。本次测试实验，忽略
    234            // Setup for the flash command's destination address - Group 1
    235            /*
    236            SampleApp_Flash_DstAddr.addrMode = (afAddrMode_t)afAddrGroup;
    237            SampleApp_Flash_DstAddr.endPoint = SAMPLEAPP_ENDPOINT;
    238            SampleApp_Flash_DstAddr.addr.shortAddr = SAMPLEAPP_FLASH_GROUP;
    239            */
    240            
    241              // 点播设置。定位时，参考节点与协调器之间的通讯是应该是点播，从而让协调器能够分类
    242            SampleApp_p2p_DstAddr.addrMode = (afAddrMode_t)Addr16Bit;
   \   00001A   90....       MOV     DPTR,#SampleApp_p2p_DstAddr + 8
   \   00001D   7402         MOV     A,#0x2
   \   00001F   F0           MOVX    @DPTR,A
    243            SampleApp_p2p_DstAddr.endPoint = SAMPLEAPP_ENDPOINT;
   \   000020   A3           INC     DPTR
   \   000021   7414         MOV     A,#0x14
   \   000023   F0           MOVX    @DPTR,A
    244            SampleApp_p2p_DstAddr.addr.shortAddr = 0x0000;//发送信息给协调器
   \   000024   90....       MOV     DPTR,#SampleApp_p2p_DstAddr
   \   000027   E4           CLR     A
   \   000028   F0           MOVX    @DPTR,A
   \   000029   A3           INC     DPTR
   \   00002A   F0           MOVX    @DPTR,A
    245            
    246            
    247            // Fill out the endpoint description.
    248            SampleApp_epDesc.endPoint = SAMPLEAPP_ENDPOINT;
   \   00002B   90....       MOV     DPTR,#SampleApp_epDesc
   \   00002E   7414         MOV     A,#0x14
   \   000030   F0           MOVX    @DPTR,A
    249            SampleApp_epDesc.task_id = &SampleApp_TaskID;
   \   000031   A3           INC     DPTR
   \   000032   74..         MOV     A,#SampleApp_TaskID & 0xff
   \   000034   F0           MOVX    @DPTR,A
   \   000035   A3           INC     DPTR
   \   000036   74..         MOV     A,#(SampleApp_TaskID >> 8) & 0xff
   \   000038   F0           MOVX    @DPTR,A
    250            SampleApp_epDesc.simpleDesc
    251                      = (SimpleDescriptionFormat_t *)&SampleApp_SimpleDesc;
   \   000039   A3           INC     DPTR
   \   00003A   74..         MOV     A,#SampleApp_SimpleDesc & 0xff
   \   00003C   F0           MOVX    @DPTR,A
   \   00003D   A3           INC     DPTR
   \   00003E   74..         MOV     A,#(SampleApp_SimpleDesc >> 8) & 0xff
   \   000040   F0           MOVX    @DPTR,A
    252            SampleApp_epDesc.latencyReq = noLatencyReqs;
   \   000041   A3           INC     DPTR
   \   000042   E4           CLR     A
   \   000043   F0           MOVX    @DPTR,A
    253          
    254            // Register the endpoint description with the AF
    255            afRegister( &SampleApp_epDesc );
   \   000044                ; Setup parameters for call to function afRegister
   \   000044   7A..         MOV     R2,#SampleApp_epDesc & 0xff
   \   000046   7B..         MOV     R3,#(SampleApp_epDesc >> 8) & 0xff
   \   000048   12....       LCALL   ??afRegister?relay
    256          
    257            // Register for all key events - This app will handle all key events
    258            RegisterForKeys( SampleApp_TaskID );
   \   00004B                ; Setup parameters for call to function RegisterForKeys
   \   00004B   90....       MOV     DPTR,#SampleApp_TaskID
   \   00004E   E0           MOVX    A,@DPTR
   \   00004F   F9           MOV     R1,A
   \   000050   12....       LCALL   ??RegisterForKeys?relay
    259          
    260            // By default, all devices start out in Group 1
    261            //默认情况下，所有设备都是组1，可以对此进行设置，从而时不同的设备进入不同的组
    262            SampleApp_Group.ID = 0x0001;
   \   000053   90....       MOV     DPTR,#SampleApp_Group
   \   000056   7401         MOV     A,#0x1
   \   000058   F0           MOVX    @DPTR,A
   \   000059   A3           INC     DPTR
   \   00005A   E4           CLR     A
   \   00005B   F0           MOVX    @DPTR,A
    263            osal_memcpy( SampleApp_Group.name, "Group 1", 7  );
   \   00005C                ; Setup parameters for call to function osal_memcpy
   \   00005C   75....       MOV     ?V0 + 0,#`?<Constant "Group 1">` & 0xff
   \   00005F   75....       MOV     ?V0 + 1,#(`?<Constant "Group 1">` >> 8) & 0xff
   \   000062   F5..         MOV     ?V0 + 2,A
   \   000064   78..         MOV     R0,#?V0 + 0
   \   000066   12....       LCALL   ?PUSH_XSTACK_I_THREE
   \   000069   7C07         MOV     R4,#0x7
   \   00006B   7D00         MOV     R5,#0x0
   \   00006D   7A..         MOV     R2,#(SampleApp_Group + 2) & 0xff
   \   00006F   7B..         MOV     R3,#((SampleApp_Group + 2) >> 8) & 0xff
   \   000071   12....       LCALL   ??osal_memcpy?relay
   \   000074   7403         MOV     A,#0x3
   \   000076   12....       LCALL   ?DEALLOC_XSTACK8
    264            aps_AddGroup( SAMPLEAPP_ENDPOINT, &SampleApp_Group );
   \   000079                ; Setup parameters for call to function aps_AddGroup
   \   000079   7A..         MOV     R2,#SampleApp_Group & 0xff
   \   00007B   7B..         MOV     R3,#(SampleApp_Group >> 8) & 0xff
   \   00007D   7914         MOV     R1,#0x14
   \   00007F   12....       LCALL   ??aps_AddGroup?relay
    265            
    266            
    267            //串口初始化
    268            uartConfig.configured       = TRUE;
   \   000082   85..82       MOV     DPL,?XSP + 0
   \   000085   85..83       MOV     DPH,?XSP + 1
   \   000088   7401         MOV     A,#0x1
   \   00008A   F0           MOVX    @DPTR,A
    269            uartConfig.baudRate         = HAL_UART_BR_9600;
   \   00008B   12....       LCALL   ?XSTACK_DISP0_8
   \   00008E   E4           CLR     A
   \   00008F   F0           MOVX    @DPTR,A
    270            uartConfig.flowControl      = FALSE;
   \   000090   7402         MOV     A,#0x2
   \   000092   12....       LCALL   ?XSTACK_DISP0_8
   \   000095   E4           CLR     A
   \   000096   F0           MOVX    @DPTR,A
    271            uartConfig.flowControlThreshold = MT_UART_THRESHOLD;//默认使用流控制
   \   000097   7403         MOV     A,#0x3
   \   000099   12....       LCALL   ?XSTACK_DISP0_8
   \   00009C   7440         MOV     A,#0x40
   \   00009E   F0           MOVX    @DPTR,A
   \   00009F   A3           INC     DPTR
   \   0000A0   E4           CLR     A
   \   0000A1   F0           MOVX    @DPTR,A
    272            uartConfig.rx.maxBufSize     = 200;
   \   0000A2   740A         MOV     A,#0xa
   \   0000A4   12....       LCALL   ?XSTACK_DISP0_8
   \   0000A7   74C8         MOV     A,#-0x38
   \   0000A9   F0           MOVX    @DPTR,A
   \   0000AA   A3           INC     DPTR
   \   0000AB   E4           CLR     A
   \   0000AC   F0           MOVX    @DPTR,A
    273            uartConfig.tx.maxBufSize     =200;
   \   0000AD   7412         MOV     A,#0x12
   \   0000AF   12....       LCALL   ?XSTACK_DISP0_8
   \   0000B2   74C8         MOV     A,#-0x38
   \   0000B4   F0           MOVX    @DPTR,A
   \   0000B5   A3           INC     DPTR
   \   0000B6   E4           CLR     A
   \   0000B7   F0           MOVX    @DPTR,A
    274            uartConfig.idleTimeout       = MT_UART_IDLE_TIMEOUT;
   \   0000B8   7405         MOV     A,#0x5
   \   0000BA   12....       LCALL   ?XSTACK_DISP0_8
   \   0000BD   7406         MOV     A,#0x6
   \   0000BF   F0           MOVX    @DPTR,A
    275            uartConfig.intEnable          =TRUE;
   \   0000C0   7416         MOV     A,#0x16
   \   0000C2   12....       LCALL   ?XSTACK_DISP0_8
   \   0000C5   7401         MOV     A,#0x1
   \   0000C7   F0           MOVX    @DPTR,A
    276            uartConfig.callBackFunc       =UART_CallBackFunction;
   \   0000C8   741B         MOV     A,#0x1b
   \   0000CA   12....       LCALL   ?XSTACK_DISP0_8
   \   0000CD   74..         MOV     A,#??UART_CallBackFunction?relay & 0xff
   \   0000CF   F0           MOVX    @DPTR,A
   \   0000D0   A3           INC     DPTR
   \   0000D1   74..         MOV     A,#(??UART_CallBackFunction?relay >> 8) & 0xff
   \   0000D3   F0           MOVX    @DPTR,A
    277            HalUARTOpen(MY_DEFINI_UART_PORT,&uartConfig);//使用自定义的串口初始化变量来开启串口通讯
   \   0000D4                ; Setup parameters for call to function HalUARTOpen
   \   0000D4   85..82       MOV     DPL,?XSP + 0
   \   0000D7   85..83       MOV     DPH,?XSP + 1
   \   0000DA   AA82         MOV     R2,DPL
   \   0000DC   AB83         MOV     R3,DPH
   \   0000DE   7900         MOV     R1,#0x0
   \   0000E0   12....       LCALL   ??HalUARTOpen?relay
    278            
    279            
    280          //此处设置的目的是，只有路由器或者终端定时触发USER_EVT用户自定义事件，从而调用相应函数，
    281          //协调器只负责接收数据，所以不需要
    282          #if defined(ZDO_COORDINATOR)
    283            
    284          #else
    285            osal_start_timerEx(SampleApp_TaskID,USER_EVT,4000);
   \   0000E3                ; Setup parameters for call to function osal_start_timerEx
   \   0000E3   7CA0         MOV     R4,#-0x60
   \   0000E5   7D0F         MOV     R5,#0xf
   \   0000E7   7A08         MOV     R2,#0x8
   \   0000E9   12....       LCALL   ??Subroutine2_0 & 0xFFFF
    286          #endif
    287            
    288            
    289            
    290          
    291          #if defined ( LCD_SUPPORTED )
    292            HalLcdWriteString( "SampleApp", HAL_LCD_LINE_1 );
   \                     ??CrossCallReturnLabel_2:
   \   0000EC                ; Setup parameters for call to function HalLcdWriteString
   \   0000EC   7901         MOV     R1,#0x1
   \   0000EE   7A..         MOV     R2,#`?<Constant "SampleApp">` & 0xff
   \   0000F0   7B..         MOV     R3,#(`?<Constant "SampleApp">` >> 8) & 0xff
   \   0000F2   12....       LCALL   ??HalLcdWriteString?relay
    293          #endif
    294          }
   \   0000F5   741D         MOV     A,#0x1d
   \   0000F7   12....       LCALL   ?DEALLOC_XSTACK8
   \   0000FA   7F03         MOV     R7,#0x3
   \   0000FC   02....       LJMP    ?BANKED_LEAVE_XDATA

   \                                 In  segment BANKED_CODE, align 1, keep-with-next
   \                     ??Subroutine2_0:
   \   000000   7B00         MOV     R3,#0x0
   \   000002   90....       MOV     DPTR,#SampleApp_TaskID
   \   000005   E0           MOVX    A,@DPTR
   \   000006   F9           MOV     R1,A
   \   000007   12....       LCALL   ??osal_start_timerEx?relay
   \   00000A   22           RET
    295          
    296          /*********************************************************************
    297           * @fn      SampleApp_ProcessEvent
    298           *
    299           * @brief   Generic Application Task event processor.  This function
    300           *          is called to process all events for the task.  Events
    301           *          include timers, messages and any other user defined events.
    302           *
    303           * @param   task_id  - The OSAL assigned task ID.
    304           * @param   events - events to process.  This is a bit map and can
    305           *                   contain more than one event.
    306           *
    307           * @return  none
    308           */

   \                                 In  segment BANKED_CODE, align 1, keep-with-next
    309          uint16 SampleApp_ProcessEvent( uint8 task_id, uint16 events )
   \                     SampleApp_ProcessEvent:
    310          {
   \   000000   74F4         MOV     A,#-0xc
   \   000002   12....       LCALL   ?BANKED_ENTER_XDATA
   \   000005                ; Saved register size: 12
   \   000005                ; Auto size: 0
   \   000005   EA           MOV     A,R2
   \   000006   FE           MOV     R6,A
   \   000007   EB           MOV     A,R3
   \   000008   FF           MOV     R7,A
    311            afIncomingMSGPacket_t *MSGpkt;
    312            (void)task_id;  // Intentionally unreferenced parameter
    313          
    314            if ( events & SYS_EVENT_MSG )
   \   000009   5480         ANL     A,#0x80
   \   00000B   6070         JZ      ??SampleApp_ProcessEvent_0
    315            {
    316              MSGpkt = (afIncomingMSGPacket_t *)osal_msg_receive( SampleApp_TaskID );
   \   00000D                ; Setup parameters for call to function osal_msg_receive
   \   00000D   8022         SJMP    ??SampleApp_ProcessEvent_1
    317              while ( MSGpkt )
    318              {
    319                switch ( MSGpkt->hdr.event )
    320                {
    321                  // Received when a key is pressed
    322                  case KEY_CHANGE:
    323                    SampleApp_HandleKeys( ((keyChange_t *)MSGpkt)->state, ((keyChange_t *)MSGpkt)->keys );
    324                    break;
    325          
    326                  // Received when a messages is received (OTA) for this endpoint
    327                  case AF_INCOMING_MSG_CMD:
    328                    SampleApp_MessageMSGCB( MSGpkt );
    329                    break;
    330          
    331                  // Received whenever the device changes state in the network
    332                  case ZDO_STATE_CHANGE:
    333                    SampleApp_NwkState = (devStates_t)(MSGpkt->hdr.status);
   \                     ??SampleApp_ProcessEvent_2:
   \   00000F   A3           INC     DPTR
   \   000010   E0           MOVX    A,@DPTR
   \   000011   90....       MOV     DPTR,#SampleApp_NwkState
   \   000014   F0           MOVX    @DPTR,A
    334                    if ( (SampleApp_NwkState == DEV_ZB_COORD)
    335                        || (SampleApp_NwkState == DEV_ROUTER)
    336                        || (SampleApp_NwkState == DEV_END_DEVICE) )
   \   000015   6409         XRL     A,#0x9
   \   000017   600A         JZ      ??SampleApp_ProcessEvent_3
   \   000019   E0           MOVX    A,@DPTR
   \   00001A   6407         XRL     A,#0x7
   \   00001C   6005         JZ      ??SampleApp_ProcessEvent_3
   \   00001E   E0           MOVX    A,@DPTR
   \   00001F   6406         XRL     A,#0x6
   \   000021   7007         JNZ     ??CrossCallReturnLabel_0
    337                    {
    338                      // Start sending the periodic message in a regular interval.
    339                      osal_start_timerEx( SampleApp_TaskID,
    340                                        SAMPLEAPP_SEND_PERIODIC_MSG_EVT,
    341                                        SAMPLEAPP_SEND_PERIODIC_MSG_TIMEOUT );
   \                     ??SampleApp_ProcessEvent_3:
   \   000023                ; Setup parameters for call to function osal_start_timerEx
   \   000023   7C88         MOV     R4,#-0x78
   \   000025   7D13         MOV     R5,#0x13
   \   000027   12....       LCALL   ?Subroutine1 & 0xFFFF
    342                    }
    343                    else
    344                    {
    345                      // Device is no longer in the network
    346                    }
    347                    break;
    348          
    349                  default:
    350                    break;
    351                }
    352          
    353                // Release the memory
    354                osal_msg_deallocate( (uint8 *)MSGpkt );
   \                     ??CrossCallReturnLabel_0:
   \   00002A                ; Setup parameters for call to function osal_msg_deallocate
   \   00002A   AA..         MOV     R2,?V0 + 0
   \   00002C   AB..         MOV     R3,?V0 + 1
   \   00002E   12....       LCALL   ??osal_msg_deallocate?relay
    355          
    356                // Next - if one is available
    357                MSGpkt = (afIncomingMSGPacket_t *)osal_msg_receive( SampleApp_TaskID );
   \   000031                ; Setup parameters for call to function osal_msg_receive
   \                     ??SampleApp_ProcessEvent_1:
   \   000031   90....       MOV     DPTR,#SampleApp_TaskID
   \   000034   E0           MOVX    A,@DPTR
   \   000035   F9           MOV     R1,A
   \   000036   12....       LCALL   ??osal_msg_receive?relay
   \   000039   8A..         MOV     ?V0 + 0,R2
   \   00003B   8B..         MOV     ?V0 + 1,R3
   \   00003D   E5..         MOV     A,?V0 + 0
   \   00003F   45..         ORL     A,?V0 + 1
   \   000041   6032         JZ      ??SampleApp_ProcessEvent_4
   \   000043   85..82       MOV     DPL,?V0 + 0
   \   000046   85..83       MOV     DPH,?V0 + 1
   \   000049   E0           MOVX    A,@DPTR
   \   00004A   24E6         ADD     A,#-0x1a
   \   00004C   601E         JZ      ??SampleApp_ProcessEvent_5
   \   00004E   245A         ADD     A,#0x5a
   \   000050   6006         JZ      ??SampleApp_ProcessEvent_6
   \   000052   24EF         ADD     A,#-0x11
   \   000054   60B9         JZ      ??SampleApp_ProcessEvent_2
   \   000056   80D2         SJMP    ??CrossCallReturnLabel_0
   \                     ??SampleApp_ProcessEvent_6:
   \   000058                ; Setup parameters for call to function SampleApp_HandleKeys
   \   000058   A3           INC     DPTR
   \   000059   A3           INC     DPTR
   \   00005A   A3           INC     DPTR
   \   00005B   E0           MOVX    A,@DPTR
   \   00005C   FA           MOV     R2,A
   \   00005D   85..82       MOV     DPL,?V0 + 0
   \   000060   85..83       MOV     DPH,?V0 + 1
   \   000063   A3           INC     DPTR
   \   000064   A3           INC     DPTR
   \   000065   E0           MOVX    A,@DPTR
   \   000066   F9           MOV     R1,A
   \   000067   12....       LCALL   ??SampleApp_HandleKeys?relay
   \   00006A   80BE         SJMP    ??CrossCallReturnLabel_0
   \                     ??SampleApp_ProcessEvent_5:
   \   00006C                ; Setup parameters for call to function SampleApp_MessageMSGCB
   \   00006C   AA..         MOV     R2,?V0 + 0
   \   00006E   AB..         MOV     R3,?V0 + 1
   \   000070   12....       LCALL   ??SampleApp_MessageMSGCB?relay
   \   000073   80B5         SJMP    ??CrossCallReturnLabel_0
    358              }
    359          
    360              // return unprocessed events
    361              return (events ^ SYS_EVENT_MSG);
   \                     ??SampleApp_ProcessEvent_4:
   \   000075   EE           MOV     A,R6
   \   000076   FA           MOV     R2,A
   \   000077   EF           MOV     A,R7
   \   000078   6480         XRL     A,#0x80
   \                     ??SampleApp_ProcessEvent_7:
   \   00007A   FB           MOV     R3,A
   \   00007B   8021         SJMP    ??SampleApp_ProcessEvent_8
    362            }
    363          
    364            // Send a message out - This event is generated by a timer
    365            //  (setup in SampleApp_Init()).
    366            if ( events & SAMPLEAPP_SEND_PERIODIC_MSG_EVT )
   \                     ??SampleApp_ProcessEvent_0:
   \   00007D   EE           MOV     A,R6
   \   00007E   A2E0         MOV     C,0xE0 /* A   */.0
   \   000080   5018         JNC     ??SampleApp_ProcessEvent_9
    367            {
    368              // Send the periodic message
    369              SampleApp_SendPeriodicMessage();
   \   000082                ; Setup parameters for call to function SampleApp_SendPeriodicMessage
   \   000082   12....       LCALL   ??SampleApp_SendPeriodicMessage?relay
    370          
    371              // Setup to send message again in normal period (+ a little jitter)
    372              osal_start_timerEx( SampleApp_TaskID, SAMPLEAPP_SEND_PERIODIC_MSG_EVT,
    373                  (SAMPLEAPP_SEND_PERIODIC_MSG_TIMEOUT + (osal_rand() & 0x00FF)) );
   \   000085                ; Setup parameters for call to function osal_rand
   \   000085   12....       LCALL   ??osal_rand?relay
   \   000088                ; Setup parameters for call to function osal_start_timerEx
   \   000088   EA           MOV     A,R2
   \   000089   2488         ADD     A,#-0x78
   \   00008B   FC           MOV     R4,A
   \   00008C   E4           CLR     A
   \   00008D   3413         ADDC    A,#0x13
   \   00008F   FD           MOV     R5,A
   \   000090   12....       LCALL   ?Subroutine1 & 0xFFFF
    374          
    375              // return unprocessed events
    376              return (events ^ SAMPLEAPP_SEND_PERIODIC_MSG_EVT);
   \                     ??CrossCallReturnLabel_1:
   \   000093   EE           MOV     A,R6
   \   000094   6401         XRL     A,#0x1
   \   000096   FA           MOV     R2,A
   \   000097   EF           MOV     A,R7
   \   000098   80E0         SJMP    ??SampleApp_ProcessEvent_7
    377            }
    378          
    379            // Discard unknown events
    380            return 0;
   \                     ??SampleApp_ProcessEvent_9:
   \   00009A   7A00         MOV     R2,#0x0
   \   00009C   7B00         MOV     R3,#0x0
   \                     ??SampleApp_ProcessEvent_8:
   \   00009E   7F04         MOV     R7,#0x4
   \   0000A0   02....       LJMP    ?BANKED_LEAVE_XDATA
    381          }

   \                                 In  segment BANKED_CODE, align 1, keep-with-next
   \                     ?Subroutine1:
   \   000000   7A01         MOV     R2,#0x1
   \   000002                REQUIRE ??Subroutine2_0
   \   000002                ; // Fall through to label ??Subroutine2_0
    382          
    383          /*********************************************************************
    384           * Event Generation Functions
    385           */
    386          /*********************************************************************
    387           * @fn      SampleApp_HandleKeys
    388           *
    389           * @brief   Handles all key events for this device.
    390           *
    391           * @param   shift - true if in shift/alt.
    392           * @param   keys - bit field for key events. Valid entries:
    393           *                 HAL_KEY_SW_2
    394           *                 HAL_KEY_SW_1
    395           *
    396           * @return  none
    397           */

   \                                 In  segment BANKED_CODE, align 1, keep-with-next
    398          void SampleApp_HandleKeys( uint8 shift, uint8 keys )
   \                     SampleApp_HandleKeys:
    399          {
   \   000000   74F6         MOV     A,#-0xa
   \   000002   12....       LCALL   ?BANKED_ENTER_XDATA
   \   000005                ; Saved register size: 10
   \   000005                ; Auto size: 0
   \   000005   EA           MOV     A,R2
   \   000006   FE           MOV     R6,A
    400            (void)shift;  // Intentionally unreferenced parameter
    401            
    402            if ( keys & HAL_KEY_SW_1 )
   \   000007   A2E0         MOV     C,0xE0 /* A   */.0
   \   000009   5007         JNC     ??SampleApp_HandleKeys_0
    403            {
    404              /* This key sends the Flash Command is sent to Group 1.
    405               * This device will not receive the Flash Command from this
    406               * device (even if it belongs to group 1).
    407               */
    408              SampleApp_SendFlashMessage( SAMPLEAPP_FLASH_DURATION );
   \   00000B                ; Setup parameters for call to function SampleApp_SendFlashMessage
   \   00000B   7AE8         MOV     R2,#-0x18
   \   00000D   7B03         MOV     R3,#0x3
   \   00000F   12....       LCALL   ??SampleApp_SendFlashMessage?relay
    409            }
    410          
    411            if ( keys & HAL_KEY_SW_2 )
   \                     ??SampleApp_HandleKeys_0:
   \   000012   EE           MOV     A,R6
   \   000013   A2E1         MOV     C,0xE0 /* A   */.1
   \   000015   5024         JNC     ??SampleApp_HandleKeys_1
    412            {
    413              /* The Flashr Command is sent to Group 1.
    414               * This key toggles this device in and out of group 1.
    415               * If this device doesn't belong to group 1, this application
    416               * will not receive the Flash command sent to group 1.
    417               */
    418              aps_Group_t *grp;
    419              grp = aps_FindGroup( SAMPLEAPP_ENDPOINT, SAMPLEAPP_FLASH_GROUP );
    420              if ( grp )
   \   000017                ; Setup parameters for call to function aps_FindGroup
   \   000017   7A01         MOV     R2,#0x1
   \   000019   7B00         MOV     R3,#0x0
   \   00001B   7914         MOV     R1,#0x14
   \   00001D   12....       LCALL   ??aps_FindGroup?relay
   \   000020   8B..         MOV     ?V0 + 1,R3
   \   000022   EA           MOV     A,R2
   \   000023   45..         ORL     A,?V0 + 1
   \   000025   600B         JZ      ??SampleApp_HandleKeys_2
    421              {
    422                // Remove from the group
    423                aps_RemoveGroup( SAMPLEAPP_ENDPOINT, SAMPLEAPP_FLASH_GROUP );
   \   000027                ; Setup parameters for call to function aps_RemoveGroup
   \   000027   7A01         MOV     R2,#0x1
   \   000029   7B00         MOV     R3,#0x0
   \   00002B   7914         MOV     R1,#0x14
   \   00002D   12....       LCALL   ??aps_RemoveGroup?relay
   \   000030   8009         SJMP    ??SampleApp_HandleKeys_1
    424              }
    425              else
    426              {
    427                // Add to the flash group
    428                aps_AddGroup( SAMPLEAPP_ENDPOINT, &SampleApp_Group );
   \                     ??SampleApp_HandleKeys_2:
   \   000032                ; Setup parameters for call to function aps_AddGroup
   \   000032   7A..         MOV     R2,#SampleApp_Group & 0xff
   \   000034   7B..         MOV     R3,#(SampleApp_Group >> 8) & 0xff
   \   000036   7914         MOV     R1,#0x14
   \   000038   12....       LCALL   ??aps_AddGroup?relay
    429              }
    430            }
    431          }
   \                     ??SampleApp_HandleKeys_1:
   \   00003B   80..         SJMP    ??Subroutine3_0

   \                                 In  segment BANKED_CODE, align 1, keep-with-next
   \                     ??Subroutine3_0:
   \   000000   7F02         MOV     R7,#0x2
   \   000002   02....       LJMP    ?BANKED_LEAVE_XDATA
    432          
    433          /*********************************************************************
    434           * LOCAL FUNCTIONS
    435           */
    436          
    437          /*********************************************************************
    438           * @fn      SampleApp_MessageMSGCB
    439           *
    440           * @brief   Data message processor callback.  This function processes
    441           *          any incoming data - probably from other devices.  So, based
    442           *          on cluster ID, perform the intended action.
    443           *
    444           * @param   none
    445           *
    446           * @return  none
    447           */

   \                                 In  segment BANKED_CODE, align 1, keep-with-next
    448          void SampleApp_MessageMSGCB( afIncomingMSGPacket_t *pkt )
   \                     SampleApp_MessageMSGCB:
    449          {
   \   000000   74F6         MOV     A,#-0xa
   \   000002   12....       LCALL   ?BANKED_ENTER_XDATA
   \   000005                ; Saved register size: 10
   \   000005                ; Auto size: 0
    450            uint16 flashTime;
    451          
    452            switch ( pkt->clusterId )
   \   000005   8A82         MOV     DPL,R2
   \   000007   8B83         MOV     DPH,R3
   \   000009   A3           INC     DPTR
   \   00000A   A3           INC     DPTR
   \   00000B   A3           INC     DPTR
   \   00000C   A3           INC     DPTR
   \   00000D   E0           MOVX    A,@DPTR
   \   00000E   6402         XRL     A,#0x2
   \   000010   7002         JNZ     ??SampleApp_MessageMSGCB_0
   \   000012   A3           INC     DPTR
   \   000013   E0           MOVX    A,@DPTR
   \                     ??SampleApp_MessageMSGCB_0:
   \   000014   703B         JNZ     ??SampleApp_MessageMSGCB_1
    453            {
    454              case SAMPLEAPP_PERIODIC_CLUSTERID:
    455                break;
    456          
    457              case SAMPLEAPP_FLASH_CLUSTERID:
    458                flashTime = BUILD_UINT16(pkt->cmd.Data[1], pkt->cmd.Data[2] );
    459                HalLedBlink( HAL_LED_4, 4, 50, (flashTime / 4) );
   \   000016   EA           MOV     A,R2
   \   000017   2421         ADD     A,#0x21
   \   000019   F582         MOV     DPL,A
   \   00001B   EB           MOV     A,R3
   \   00001C   3400         ADDC    A,#0x0
   \   00001E   F583         MOV     DPH,A
   \   000020   E0           MOVX    A,@DPTR
   \   000021   F8           MOV     R0,A
   \   000022   A3           INC     DPTR
   \   000023   E0           MOVX    A,@DPTR
   \   000024   F9           MOV     R1,A
   \   000025                ; Setup parameters for call to function HalLedBlink
   \   000025   8882         MOV     DPL,R0
   \   000027   8983         MOV     DPH,R1
   \   000029   A3           INC     DPTR
   \   00002A   E0           MOVX    A,@DPTR
   \   00002B   FA           MOV     R2,A
   \   00002C   8882         MOV     DPL,R0
   \   00002E   8983         MOV     DPH,R1
   \   000030   A3           INC     DPTR
   \   000031   A3           INC     DPTR
   \   000032   E0           MOVX    A,@DPTR
   \   000033   F9           MOV     R1,A
   \   000034   EA           MOV     A,R2
   \   000035   2400         ADD     A,#0x0
   \   000037   F5..         MOV     ?V0 + 0,A
   \   000039   E4           CLR     A
   \   00003A   39           ADDC    A,R1
   \   00003B   F5..         MOV     ?V0 + 1,A
   \   00003D   7402         MOV     A,#0x2
   \   00003F   78..         MOV     R0,#?V0 + 0
   \   000041   12....       LCALL   ?US_SHR
   \   000044   AC..         MOV     R4,?V0 + 0
   \   000046   AD..         MOV     R5,?V0 + 1
   \   000048   7B32         MOV     R3,#0x32
   \   00004A   7A04         MOV     R2,#0x4
   \   00004C   7908         MOV     R1,#0x8
   \   00004E   12....       LCALL   ??HalLedBlink?relay
    460                break;
    461            }
    462          }
   \                     ??SampleApp_MessageMSGCB_1:
   \   000051   80..         SJMP    ??Subroutine3_0
    463          
    464          /*********************************************************************
    465           * @fn      SampleApp_SendPeriodicMessage
    466           *
    467           * @brief   Send the periodic message.
    468           *
    469           * @param   none
    470           *
    471           * @return  none
    472           */

   \                                 In  segment BANKED_CODE, align 1, keep-with-next
   \                     ?Subroutine0:
   \   000000   12....       LCALL   ?DEALLOC_XSTACK8
   \   000003                REQUIRE ??Subroutine3_0
   \   000003                ; // Fall through to label ??Subroutine3_0

   \                                 In  segment BANKED_CODE, align 1, keep-with-next
    473          void SampleApp_SendPeriodicMessage( void )
   \                     SampleApp_SendPeriodicMessage:
    474          {
   \   000000   74F6         MOV     A,#-0xa
   \   000002   12....       LCALL   ?BANKED_ENTER_XDATA
   \   000005                ; Saved register size: 10
   \   000005                ; Auto size: 0
    475            if ( AF_DataRequest( &SampleApp_Periodic_DstAddr, &SampleApp_epDesc,
    476                                 SAMPLEAPP_PERIODIC_CLUSTERID,
    477                                 1,
    478                                 (uint8*)&SampleAppPeriodicCounter,
    479                                 &SampleApp_TransID,
    480                                 AF_DISCV_ROUTE,
    481                                 AF_DEFAULT_RADIUS ) == afStatus_SUCCESS )
   \   000005                ; Setup parameters for call to function AF_DataRequest
   \   000005   75..1E       MOV     ?V0 + 0,#0x1e
   \   000008   78..         MOV     R0,#?V0 + 0
   \   00000A   12....       LCALL   ?PUSH_XSTACK_I_ONE
   \   00000D   75....       MOV     ?V0 + 0,#SampleApp_TransID & 0xff
   \   000010   75....       MOV     ?V0 + 1,#(SampleApp_TransID >> 8) & 0xff
   \   000013   78..         MOV     R0,#?V0 + 0
   \   000015   12....       LCALL   ?PUSH_XSTACK_I_TWO
   \   000018   75....       MOV     ?V0 + 0,#SampleAppPeriodicCounter & 0xff
   \   00001B   75....       MOV     ?V0 + 1,#(SampleAppPeriodicCounter >> 8) & 0xff
   \   00001E   78..         MOV     R0,#?V0 + 0
   \   000020   12....       LCALL   ?PUSH_XSTACK_I_TWO
   \   000023   75..01       MOV     ?V0 + 0,#0x1
   \   000026   75..00       MOV     ?V0 + 1,#0x0
   \   000029   78..         MOV     R0,#?V0 + 0
   \   00002B   12....       LCALL   ?PUSH_XSTACK_I_TWO
   \   00002E   78..         MOV     R0,#?V0 + 0
   \   000030   12....       LCALL   ?PUSH_XSTACK_I_TWO
   \   000033   7920         MOV     R1,#0x20
   \   000035   7C..         MOV     R4,#SampleApp_epDesc & 0xff
   \   000037   7D..         MOV     R5,#(SampleApp_epDesc >> 8) & 0xff
   \   000039   7A..         MOV     R2,#SampleApp_Periodic_DstAddr & 0xff
   \   00003B   7B..         MOV     R3,#(SampleApp_Periodic_DstAddr >> 8) & 0xff
   \   00003D   12....       LCALL   ??AF_DataRequest?relay
   \   000040   7409         MOV     A,#0x9
   \   000042   02....       LJMP    ?Subroutine0 & 0xFFFF
    482            {
    483            }
    484            else
    485            {
    486              // Error occurred in request to send.
    487            }
    488          }
    489          
    490          /*********************************************************************
    491           * @fn      SampleApp_SendFlashMessage
    492           *
    493           * @brief   Send the flash message to group 1.
    494           *
    495           * @param   flashTime - in milliseconds
    496           *
    497           * @return  none
    498           */

   \                                 In  segment BANKED_CODE, align 1, keep-with-next
    499          void SampleApp_SendFlashMessage( uint16 flashTime )
   \                     SampleApp_SendFlashMessage:
    500          {
   \   000000   74F6         MOV     A,#-0xa
   \   000002   12....       LCALL   ?BANKED_ENTER_XDATA
   \   000005                ; Saved register size: 10
   \   000005                ; Auto size: 3
   \   000005   74FD         MOV     A,#-0x3
   \   000007   12....       LCALL   ?ALLOC_XSTACK8
    501            uint8 buffer[3];
    502            buffer[0] = (uint8)(SampleAppFlashCounter++);
   \   00000A   90....       MOV     DPTR,#SampleAppFlashCounter
   \   00000D   E0           MOVX    A,@DPTR
   \   00000E   85..82       MOV     DPL,?XSP + 0
   \   000011   85..83       MOV     DPH,?XSP + 1
   \   000014   F0           MOVX    @DPTR,A
   \   000015   90....       MOV     DPTR,#SampleAppFlashCounter
   \   000018   E0           MOVX    A,@DPTR
   \   000019   04           INC     A
   \   00001A   F0           MOVX    @DPTR,A
    503            buffer[1] = LO_UINT16( flashTime );
   \   00001B   7401         MOV     A,#0x1
   \   00001D   12....       LCALL   ?XSTACK_DISP0_8
   \   000020   EA           MOV     A,R2
   \   000021   F0           MOVX    @DPTR,A
    504            buffer[2] = HI_UINT16( flashTime );
   \   000022   7402         MOV     A,#0x2
   \   000024   12....       LCALL   ?XSTACK_DISP0_8
   \   000027   EB           MOV     A,R3
   \   000028   F0           MOVX    @DPTR,A
    505          
    506            if ( AF_DataRequest( &SampleApp_Flash_DstAddr, &SampleApp_epDesc,
    507                                 SAMPLEAPP_FLASH_CLUSTERID,
    508                                 3,
    509                                 buffer,
    510                                 &SampleApp_TransID,
    511                                 AF_DISCV_ROUTE,
    512                                 AF_DEFAULT_RADIUS ) == afStatus_SUCCESS )
   \   000029                ; Setup parameters for call to function AF_DataRequest
   \   000029   75..1E       MOV     ?V0 + 0,#0x1e
   \   00002C   78..         MOV     R0,#?V0 + 0
   \   00002E   12....       LCALL   ?PUSH_XSTACK_I_ONE
   \   000031   75....       MOV     ?V0 + 0,#SampleApp_TransID & 0xff
   \   000034   75....       MOV     ?V0 + 1,#(SampleApp_TransID >> 8) & 0xff
   \   000037   78..         MOV     R0,#?V0 + 0
   \   000039   12....       LCALL   ?PUSH_XSTACK_I_TWO
   \   00003C   7403         MOV     A,#0x3
   \   00003E   12....       LCALL   ?XSTACK_DISP0_8
   \   000041   8582..       MOV     ?V0 + 0,DPL
   \   000044   8583..       MOV     ?V0 + 1,DPH
   \   000047   78..         MOV     R0,#?V0 + 0
   \   000049   12....       LCALL   ?PUSH_XSTACK_I_TWO
   \   00004C   75..03       MOV     ?V0 + 0,#0x3
   \   00004F   75..00       MOV     ?V0 + 1,#0x0
   \   000052   78..         MOV     R0,#?V0 + 0
   \   000054   12....       LCALL   ?PUSH_XSTACK_I_TWO
   \   000057   75..02       MOV     ?V0 + 0,#0x2
   \   00005A   78..         MOV     R0,#?V0 + 0
   \   00005C   12....       LCALL   ?PUSH_XSTACK_I_TWO
   \   00005F   7920         MOV     R1,#0x20
   \   000061   7C..         MOV     R4,#SampleApp_epDesc & 0xff
   \   000063   7D..         MOV     R5,#(SampleApp_epDesc >> 8) & 0xff
   \   000065   7A..         MOV     R2,#SampleApp_Flash_DstAddr & 0xff
   \   000067   7B..         MOV     R3,#(SampleApp_Flash_DstAddr >> 8) & 0xff
   \   000069   12....       LCALL   ??AF_DataRequest?relay
   \   00006C   7409         MOV     A,#0x9
   \   00006E   12....       LCALL   ?DEALLOC_XSTACK8
    513            {
    514            }
    515            else
    516            {
    517              // Error occurred in request to send.
    518            }
    519          }
   \   000071   7403         MOV     A,#0x3
   \   000073   02....       LJMP    ?Subroutine0 & 0xFFFF
    520          
    521          /*********************************************************************
    522          *********************************************************************/

   \                                 In  segment BANKED_CODE, align 1, keep-with-next
    523          static void UART_CallBackFunction(uint8 port, uint8 event)
   \                     UART_CallBackFunction:
    524          {
   \   000000   C082         PUSH    DPL
   \   000002   C083         PUSH    DPH
   \   000004                ; Saved register size: 2
   \   000004                ; Auto size: 0
    525            uint8 RX_Flag = 0;
    526            RX_Length = 0;//接收字符串长度
   \   000004   90....       MOV     DPTR,#RX_Length
   \   000007   E4           CLR     A
   \   000008   F0           MOVX    @DPTR,A
    527            RX_Flag = RX_Length = Hal_UART_RxBufLen(MY_DEFINI_UART_PORT);// 接收到的字符串长度
   \   000009                ; Setup parameters for call to function Hal_UART_RxBufLen
   \   000009   F9           MOV     R1,A
   \   00000A   12....       LCALL   ??Hal_UART_RxBufLen?relay
   \   00000D   EA           MOV     A,R2
   \   00000E   90....       MOV     DPTR,#RX_Length
   \   000011   F0           MOVX    @DPTR,A
    528            
    529            if(RX_Flag != 0)// 有数据存在
   \   000012   601C         JZ      ??UART_CallBackFunction_0
    530            {
    531              //读取串口数据
    532              HalUARTRead(MY_DEFINI_UART_PORT,RX_BUFFER,RX_Length);
   \   000014                ; Setup parameters for call to function HalUARTRead
   \   000014   FC           MOV     R4,A
   \   000015   7D00         MOV     R5,#0x0
   \   000017   7A..         MOV     R2,#RX_BUFFER & 0xff
   \   000019   7B..         MOV     R3,#(RX_BUFFER >> 8) & 0xff
   \   00001B   7900         MOV     R1,#0x0
   \   00001D   12....       LCALL   ??HalUARTRead?relay
    533              {
    534                //将数据发回给电脑，使用hal_uart.h的接口函数
    535                HalUARTWrite(MY_DEFINI_UART_PORT,RX_BUFFER,RX_Length);
   \   000020                ; Setup parameters for call to function HalUARTWrite
   \   000020   90....       MOV     DPTR,#RX_Length
   \   000023   E0           MOVX    A,@DPTR
   \   000024   FC           MOV     R4,A
   \   000025   7D00         MOV     R5,#0x0
   \   000027   7A..         MOV     R2,#RX_BUFFER & 0xff
   \   000029   7B..         MOV     R3,#(RX_BUFFER >> 8) & 0xff
   \   00002B   7900         MOV     R1,#0x0
   \   00002D   12....       LCALL   ??HalUARTWrite?relay
    536              }
    537            }
    538              
    539          }
   \                     ??UART_CallBackFunction_0:
   \   000030   D083         POP     DPH
   \   000032   D082         POP     DPL
   \   000034   02....       LJMP    ?BRET

   \                                 In  segment BANK_RELAYS, align 1
   \                     ??SampleApp_Init?relay:
   \   000000   12....       LCALL   ?BDISPATCH
   \   000003   ......       DC24    SampleApp_Init

   \                                 In  segment BANK_RELAYS, align 1
   \                     ??SampleApp_ProcessEvent?relay:
   \   000000   12....       LCALL   ?BDISPATCH
   \   000003   ......       DC24    SampleApp_ProcessEvent

   \                                 In  segment BANK_RELAYS, align 1
   \                     ??SampleApp_HandleKeys?relay:
   \   000000   12....       LCALL   ?BDISPATCH
   \   000003   ......       DC24    SampleApp_HandleKeys

   \                                 In  segment BANK_RELAYS, align 1
   \                     ??SampleApp_MessageMSGCB?relay:
   \   000000   12....       LCALL   ?BDISPATCH
   \   000003   ......       DC24    SampleApp_MessageMSGCB

   \                                 In  segment BANK_RELAYS, align 1
   \                     ??SampleApp_SendPeriodicMessage?relay:
   \   000000   12....       LCALL   ?BDISPATCH
   \   000003   ......       DC24    SampleApp_SendPeriodicMessage

   \                                 In  segment BANK_RELAYS, align 1
   \                     ??SampleApp_SendFlashMessage?relay:
   \   000000   12....       LCALL   ?BDISPATCH
   \   000003   ......       DC24    SampleApp_SendFlashMessage

   \                                 In  segment BANK_RELAYS, align 1
   \                     ??UART_CallBackFunction?relay:
   \   000000   12....       LCALL   ?BDISPATCH
   \   000003   ......       DC24    UART_CallBackFunction

   \                                 In  segment XDATA_ROM_C, align 1
   \                     `?<Constant "Group 1">`:
   \   000000   47726F75     DB "Group 1"
   \            70203100

   \                                 In  segment XDATA_ROM_C, align 1
   \                     `?<Constant "SampleApp">`:
   \   000000   53616D70     DB "SampleApp"
   \            6C654170
   \            7000    

   Maximum stack usage in bytes:

     Function                       ISTACK PSTACK XSTACK
     --------                       ------ ------ ------
     SampleApp_HandleKeys               0      0     22
       -> SampleApp_SendFlashMessage
                                        0      0     20
       -> aps_FindGroup                 0      0     20
       -> aps_RemoveGroup               0      0     20
       -> aps_AddGroup                  0      0     20
     SampleApp_Init                     0      0     43
       -> afRegister                    0      0     80
       -> RegisterForKeys               0      0     80
       -> osal_memcpy                   0      0     86
       -> aps_AddGroup                  0      0     80
       -> HalUARTOpen                   0      0     80
       -> osal_start_timerEx            0      0     80
       -> HalLcdWriteString             0      0     80
     SampleApp_MessageMSGCB             0      0     22
       -> HalLedBlink                   0      0     20
     SampleApp_ProcessEvent             0      0     12
       -> osal_msg_receive              0      0     24
       -> osal_start_timerEx            0      0     24
       -> osal_msg_deallocate           0      0     24
       -> osal_msg_receive              0      0     24
       -> SampleApp_HandleKeys          0      0     24
       -> SampleApp_MessageMSGCB        0      0     24
       -> SampleApp_SendPeriodicMessage
                                        0      0     24
       -> osal_rand                     0      0     24
       -> osal_start_timerEx            0      0     24
     SampleApp_SendFlashMessage         1      0     32
       -> AF_DataRequest                0      0     44
     SampleApp_SendPeriodicMessage      0      0     31
       -> AF_DataRequest                0      0     38
     UART_CallBackFunction              2      0      0
       -> Hal_UART_RxBufLen             4      0      0
       -> HalUARTRead                   4      0      0
       -> HalUARTWrite                  4      0      0


   Segment part sizes:

     Function/Label                        Bytes
     --------------                        -----
     RX_BUFFER                               20
     RX_Length                                1
     SampleApp_ClusterList                    4
     SampleApp_SimpleDesc                    12
     SampleApp_epDesc                         6
     SampleApp_TaskID                         1
     SampleApp_NwkState                       1
     SampleApp_TransID                        1
     SampleApp_Periodic_DstAddr              12
     SampleApp_Flash_DstAddr                 12
     SampleApp_p2p_DstAddr                   12
     SampleApp_Group                         18
     SampleAppPeriodicCounter                 1
     SampleAppFlashCounter                    1
     SampleApp_Init                         255
     ??Subroutine2_0                         11
     SampleApp_ProcessEvent                 163
     ?Subroutine1                             2
     SampleApp_HandleKeys                    61
     ??Subroutine3_0                          5
     SampleApp_MessageMSGCB                  83
     ?Subroutine0                             3
     SampleApp_SendPeriodicMessage           69
     SampleApp_SendFlashMessage             118
     UART_CallBackFunction                   55
     ??SampleApp_Init?relay                   6
     ??SampleApp_ProcessEvent?relay           6
     ??SampleApp_HandleKeys?relay             6
     ??SampleApp_MessageMSGCB?relay           6
     ??SampleApp_SendPeriodicMessage?relay    6
     ??SampleApp_SendFlashMessage?relay       6
     ??UART_CallBackFunction?relay            6
     ?<Constant "Group 1">                    8
     ?<Constant "SampleApp">                 10

 
 825 bytes in segment BANKED_CODE
  42 bytes in segment BANK_RELAYS
  34 bytes in segment XDATA_ROM_C
  86 bytes in segment XDATA_Z
 
 867 bytes of CODE  memory
  34 bytes of CONST memory
  86 bytes of XDATA memory

Errors: none
Warnings: none
